(dp0
S'OriginalConfig'
p1
ccopy_reg
_reconstructor
p2
(cWMCore.Configuration
Configuration
p3
c__builtin__
object
p4
Ntp5
Rp6
(dp7
S'Site'
p8
g2
(cWMCore.Configuration
ConfigSection
p9
g4
Ntp10
Rp11
(dp12
S'_internal_skipChecks'
p13
I00
sS'_internal_documentation'
p14
S''
p15
sS'_internal_settings'
p16
c__builtin__
set
p17
((lp18
S'storageSite'
p19
atp20
Rp21
sS'_internal_name'
p22
g8
sS'_internal_docstrings'
p23
(dp24
sS'_internal_children'
p25
g17
((lp26
tp27
Rp28
sg19
S'T2_CH_CERN'
p29
sS'_internal_parent_ref'
p30
NsbsS'_internal_sections'
p31
(lp32
S'General'
p33
aS'JobType'
p34
aS'Data'
p35
ag8
aS'User'
p36
aS'Debug'
p37
asg36
g2
(g9
g4
Ntp38
Rp39
(dp40
g13
I00
sg14
g15
sg16
g17
((lp41
tp42
Rp43
sg22
g36
sg23
(dp44
sg25
g17
((lp45
tp46
Rp47
sg30
Nsbsg37
g2
(g9
g4
Ntp48
Rp49
(dp50
g13
I00
sg14
g15
sg16
g17
((lp51
tp52
Rp53
sg22
g37
sg23
(dp54
sg25
g17
((lp55
tp56
Rp57
sg30
Nsbsg33
g2
(g9
g4
Ntp58
Rp59
(dp60
S'transferLogs'
p61
I00
sg13
I00
sg14
g15
sg16
g17
((lp62
g61
aS'transferOutputs'
p63
aS'workArea'
p64
aS'requestName'
p65
atp66
Rp67
sg22
g33
sg23
(dp68
sg63
I01
sg25
g17
((lp69
tp70
Rp71
sg65
S'JetTrees_PFJetsAK8_Herwig7_Pt150to3000FlatPower7_Run2018_MiniAODv2_20220529_v1'
p72
sg30
Nsg64
S'crab_projects'
p73
sbsg35
g2
(g9
g4
Ntp74
Rp75
(dp76
S'inputDataset'
p77
S'/QCD_Pt-150to3000_TuneCH3_FlatPower7_13TeV-herwig7/RunIISummer19UL18MiniAODv2-106X_upgrade2018_realistic_v16_L1v1-v1/MINIAODSIM'
p78
sS'allowNonValidInputDataset'
p79
I01
sg13
I00
sS'splitting'
p80
S'FileBased'
p81
sS'unitsPerJob'
p82
I3
sg14
g15
sg16
g17
((lp83
g77
aS'outputDatasetTag'
p84
ag82
aS'inputDBS'
p85
ag80
ag79
aS'outLFNDirBase'
p86
atp87
Rp88
sg22
g35
sg85
S'global'
p89
sg23
(dp90
sg84
g72
sg25
g17
((lp91
tp92
Rp93
sg86
S'/store/group/phys_heavyions/flowcorr/'
p94
sg30
Nsbsg34
g2
(g9
g4
Ntp95
Rp96
(dp97
g13
I00
sg14
g15
sg16
g17
((lp98
S'psetName'
p99
aS'pluginName'
p100
aS'allowUndistributedCMSSW'
p101
aS'Memory'
p102
atp103
Rp104
sg22
g34
sg23
(dp105
sg100
S'Analysis'
p106
sg25
g17
((lp107
tp108
Rp109
sg101
I01
sg102
I3000
sg30
Nsg99
S'pset_mc.py'
p110
sbsbsS'voGroup'
p111
g15
sS'Server'
p112
S'cmsweb.cern.ch'
p113
sS'instance'
p114
S'prod'
p115
sS'RequestName'
p116
V230403_213206:davidlw_crab_JetTrees_PFJetsAK8_Herwig7_Pt150to3000FlatPower7_Run2018_MiniAODv2_20220529_v1
p117
sS'voRole'
p118
S'NULL'
p119
sS'Port'
p120
g15
s.