ccopy_reg
_reconstructor
p0
(cFWCore.ParameterSet.Config
Process
p1
c__builtin__
object
p2
Ntp3
Rp4
(dp5
S'CaloGeometryBuilder'
p6
g0
(cFWCore.ParameterSet.Modules
ESProducer
p7
g2
Ntp8
Rp9
(dp10
S'_Parameterizable__parameterNames'
p11
(lp12
S'SelectedCalos'
p13
asS'_isFrozen'
p14
I00
sS'_isModified'
p15
I00
sS'_lineNumber'
p16
I56
sS'_filename'
p17
S'/cvmfs/cms.cern.ch/slc7_amd64_gcc820/cms/cmssw-patch/CMSSW_10_6_4_patch1/python/FWCore/ParameterSet/Modules.py'
p18
sg13
g0
(cFWCore.ParameterSet.Types
vstring
p19
c__builtin__
list
p20
(lp21
S'HCAL'
p22
aS'ZDC'
p23
aS'CASTOR'
p24
aS'EcalBarrel'
p25
aS'EcalEndcap'
p26
aS'EcalPreshower'
p27
aS'TOWER'
p28
atp29
Rp30
(dp31
g14
I00
sS'_ParameterTypeBase__isTracked'
p32
I01
sg15
I00
sS'_nPerLine'
p33
I1
sbsS'_Labelable__label'
p34
g6
sS'_TypedParameterizable__type'
p35
g6
sbsS'_Process__sequences'
p36
(dp37
S'eventFilterHLT'
p38
g0
(cFWCore.ParameterSet.SequenceTypes
Sequence
p39
g2
Ntp40
Rp41
(dp42
g14
I00
sS'_seq'
p43
g0
(cFWCore.ParameterSet.SequenceTypes
_SequenceCollection
p44
g2
Ntp45
Rp46
(dp47
S'_collection'
p48
(lp49
g0
(cFWCore.ParameterSet.Modules
EDFilter
p50
g2
Ntp51
Rp52
(dp53
g11
(lp54
S'eventSetupPathsKey'
p55
aS'andOr'
p56
aS'HLTPaths'
p57
aS'throw'
p58
aS'TriggerResultsTag'
p59
asg14
I00
sg57
g0
(g19
g20
(lp60
S'HLT_AK8PFJet500_v*'
p61
atp62
Rp63
(dp64
g14
I00
sg32
I01
sg15
I01
sg33
I1
sbsg15
I01
sg16
I34
sg17
S'/afs/cern.ch/user/d/davidlw/CMSSW/CMSSW_10_6_4_patch1_jet/src/HeavyIonsAnalysis/TrackAnalysis/python/lxplusConfigs_september/ak8/pset_mc.py'
p65
sg34
S'hlt'
p66
sg55
g0
(cFWCore.ParameterSet.Types
string
p67
g2
Ntp68
Rp69
(dp70
g14
I00
sg32
I01
sS'_value'
p71
S''
p72
sg15
I00
sbsg59
g0
(cFWCore.ParameterSet.Types
InputTag
p73
g2
Ntp74
Rp75
(dp76
g14
I00
sg32
I01
sg15
I00
sS'_InputTag__moduleLabel'
p77
S'TriggerResults'
p78
sS'_InputTag__productInstance'
p79
g72
sS'_InputTag__processName'
p80
S'HLT'
p81
sbsg58
g0
(cFWCore.ParameterSet.Types
bool
p82
g2
Ntp83
Rp84
(dp85
g14
I00
sg32
I01
sg71
I00
sg15
I00
sbsg35
S'HLTHighLevel'
p86
sg56
g0
(g82
g2
Ntp87
Rp88
(dp89
g14
I00
sg32
I01
sg71
I01
sg15
I00
sbsbasbsg34
g38
sg15
I00
sS'_tasks'
p90
g0
(cFWCore.ParameterSet.OrderedSet
OrderedSet
p91
g2
Ntp92
Rp93
(dp94
S'map'
p95
(dp96
sS'end'
p97
(lp98
Nag98
ag98
asbsbssS'_Process__source'
p99
g0
(cFWCore.ParameterSet.Modules
Source
p100
g2
Ntp101
Rp102
(dp103
g11
(lp104
S'duplicateCheckMode'
p105
aS'fileNames'
p106
asg14
I00
sg15
I00
sg105
g0
(g67
g2
Ntp107
Rp108
(dp109
g14
I00
sg32
I00
sg71
S'noDuplicateCheck'
p110
sg15
I00
sbsg16
I196
sg17
g18
sg106
g0
(g19
g20
(lp111
S'/store/mc/RunIISummer20UL18MiniAODv2/QCD_Pt_470to600_TuneCP5_13TeV_pythia8/MINIAODSIM/106X_upgrade2018_realistic_v16_L1v1-v1/100000/021E9C3E-CEB9-4343-9B3A-12790E92E8D9.root'
p112
atp113
Rp114
(dp115
g14
I00
sg32
I00
sg15
I00
sg33
I1
sbsg35
S'PoolSource'
p116
sbsS'XMLFromDBSource'
p117
g0
(g7
g2
Ntp118
Rp119
(dp120
g11
(lp121
S'rootDDName'
p122
aS'label'
p123
asg14
I00
sg15
I00
sg16
I56
sg17
g18
sg122
g0
(g67
g2
Ntp124
Rp125
(dp126
g14
I00
sg32
I01
sg71
S'cms:OCMS'
p127
sg15
I00
sbsg123
g0
(g67
g2
Ntp128
Rp129
(dp130
g14
I00
sg32
I01
sg71
S'Extended'
p131
sg15
I00
sbsg34
g117
sg35
S'XMLIdealGeometryESProducer'
p132
sbsS'TFileService'
p133
g0
(cFWCore.ParameterSet.Modules
Service
p134
g2
Ntp135
Rp136
(dp137
g11
(lp138
S'fileName'
p139
asg14
I00
sS'_inProcess'
p140
I01
sg15
I00
sg16
I14
sg17
g18
sg139
g0
(g67
g2
Ntp141
Rp142
(dp143
g14
I00
sg32
I01
sg71
S'output_UL_ak8.root'
p144
sg15
I00
sbsg35
g133
sbsS'hcalDDDSimConstants'
p145
g0
(g7
g2
Ntp146
Rp147
(dp148
g11
(lp149
S'appendToDataLabel'
p150
asg14
I00
sg150
g0
(g67
g2
Ntp151
Rp152
(dp153
g14
I00
sg32
I01
sg71
g72
sg15
I00
sbsg15
I00
sg16
I56
sg17
g18
sg34
g145
sg35
S'HcalDDDSimConstantsESModule'
p154
sbsS'source'
p155
g102
sS'RandomNumberGeneratorService'
p156
g0
(g134
g2
Ntp157
Rp158
(dp159
g14
I00
sS'horeco'
p160
g0
(cFWCore.ParameterSet.Types
PSet
p161
g2
Ntp162
Rp163
(dp164
g14
I00
sg32
I01
sg15
I00
sS'initialSeed'
p165
g0
(cFWCore.ParameterSet.Types
uint32
p166
g2
Ntp167
Rp168
(dp169
g14
I00
sg32
I00
sg71
I541321
sg15
I00
sbsg11
(lp170
g165
aS'engineName'
p171
asg171
g0
(g67
g2
Ntp172
Rp173
(dp174
g14
I00
sg32
I00
sg71
S'MixMaxRng'
p175
sg15
I00
sbsbsg16
I14
sS'externalLHEProducer'
p176
g0
(g161
g2
Ntp177
Rp178
(dp179
g14
I00
sg32
I01
sg15
I00
sg165
g0
(g166
g2
Ntp180
Rp181
(dp182
g14
I00
sg32
I00
sg71
I234567
sg15
I00
sbsg11
(lp183
g165
ag171
asg171
g0
(g67
g2
Ntp184
Rp185
(dp186
g14
I00
sg32
I00
sg71
g175
sg15
I00
sbsbsS'saveFileName'
p187
g0
(g67
g2
Ntp188
Rp189
(dp190
g14
I00
sg32
I00
sg71
g72
sg15
I00
sbsS'fastSimProducer'
p191
g0
(g161
g2
Ntp192
Rp193
(dp194
g14
I00
sg32
I01
sg15
I00
sg165
g0
(g166
g2
Ntp195
Rp196
(dp197
g14
I00
sg32
I00
sg71
I13579
sg15
I00
sbsg11
(lp198
g165
ag171
asg171
g173
sbsS'hbhereco'
p199
g0
(g161
g2
Ntp200
Rp201
(dp202
g14
I00
sg32
I01
sg15
I00
sg165
g0
(g166
g2
Ntp203
Rp204
(dp205
g14
I00
sg32
I00
sg71
I541321
sg15
I00
sbsg11
(lp206
g165
ag171
asg171
g173
sbsS'simSiStripDigiSimLink'
p207
g0
(g161
g2
Ntp208
Rp209
(dp210
g14
I00
sg32
I01
sg15
I00
sg165
g0
(g166
g2
Ntp211
Rp212
(dp213
g14
I00
sg32
I00
sg71
I1234567
sg15
I00
sbsg11
(lp214
g165
ag171
asg171
g185
sbsS'paramMuons'
p215
g0
(g161
g2
Ntp216
Rp217
(dp218
g14
I00
sg32
I01
sg15
I00
sg165
g0
(g166
g2
Ntp219
Rp220
(dp221
g14
I00
sg32
I00
sg71
I54525
sg15
I00
sbsg11
(lp222
g165
ag171
asg171
g173
sbsS'famosPileUp'
p223
g0
(g161
g2
Ntp224
Rp225
(dp226
g14
I00
sg32
I01
sg15
I00
sg165
g0
(g166
g2
Ntp227
Rp228
(dp229
g14
I00
sg32
I00
sg71
I918273
sg15
I00
sbsg11
(lp230
g165
ag171
asg171
g173
sbsS'simMuonDTDigis'
p231
g0
(g161
g2
Ntp232
Rp233
(dp234
g14
I00
sg32
I01
sg15
I00
sg165
g0
(g166
g2
Ntp235
Rp236
(dp237
g14
I00
sg32
I00
sg71
I1234567
sg15
I00
sbsg11
(lp238
g165
ag171
asg171
g185
sbsg35
g156
sg11
(lp239
g160
ag176
ag187
aS'mixRecoTracks'
p240
ag199
ag207
ag215
ag223
ag231
aS'ecalPreshowerRecHit'
p241
aS'generator'
p242
aS'simMuonRPCDigis'
p243
aS'hiSignal'
p244
aS'CTPPSFastRecHits'
p245
aS'mixSimCaloHits'
p246
aS'mix'
p247
aS'fastTrackerRecHits'
p248
aS'VtxSmeared'
p249
aS'LHCTransport'
p250
aS'ecalRecHit'
p251
aS'hfreco'
p252
ag191
aS'hiSignalG4SimHits'
p253
aS'MuonSimHits'
p254
aS'g4SimHits'
p255
aS'hiSignalLHCTransport'
p256
aS'mixGenPU'
p257
aS'l1ParamMuons'
p258
aS'simBeamSpotFilter'
p259
aS'simMuonCSCDigis'
p260
aS'mixData'
p261
asg241
g0
(g161
g2
Ntp262
Rp263
(dp264
g14
I00
sg32
I01
sg15
I00
sg165
g0
(g166
g2
Ntp265
Rp266
(dp267
g14
I00
sg32
I00
sg71
I6541321
sg15
I00
sbsg11
(lp268
g165
ag171
asg171
g173
sbsg140
I01
sg242
g0
(g161
g2
Ntp269
Rp270
(dp271
g14
I00
sg32
I01
sg15
I00
sg165
g0
(g166
g2
Ntp272
Rp273
(dp274
g14
I00
sg32
I00
sg71
I123456789
sg15
I00
sbsg11
(lp275
g165
ag171
asg171
g185
sbsg243
g0
(g161
g2
Ntp276
Rp277
(dp278
g14
I00
sg32
I01
sg15
I00
sg165
g0
(g166
g2
Ntp279
Rp280
(dp281
g14
I00
sg32
I00
sg71
I1234567
sg15
I00
sbsg11
(lp282
g165
ag171
asg171
g185
sbsg244
g0
(g161
g2
Ntp283
Rp284
(dp285
g14
I00
sg32
I01
sg15
I00
sg165
g0
(g166
g2
Ntp286
Rp287
(dp288
g14
I00
sg32
I00
sg71
I123456789
sg15
I00
sbsg11
(lp289
g165
ag171
asg171
g185
sbsg245
g0
(g161
g2
Ntp290
Rp291
(dp292
g14
I00
sg32
I01
sg15
I00
sg165
g0
(g166
g2
Ntp293
Rp294
(dp295
g14
I00
sg32
I00
sg71
I1357987
sg15
I00
sbsg11
(lp296
g165
ag171
asg171
g173
sbsg246
g0
(g161
g2
Ntp297
Rp298
(dp299
g14
I00
sg32
I01
sg15
I00
sg165
g0
(g166
g2
Ntp300
Rp301
(dp302
g14
I00
sg32
I00
sg71
I918273
sg15
I00
sbsg11
(lp303
g165
ag171
asg171
g173
sbsg247
g0
(g161
g2
Ntp304
Rp305
(dp306
g14
I00
sg32
I01
sg15
I00
sg165
g0
(g166
g2
Ntp307
Rp308
(dp309
g14
I00
sg32
I00
sg71
I12345
sg15
I00
sbsg11
(lp310
g165
ag171
asg171
g185
sbsg248
g0
(g161
g2
Ntp311
Rp312
(dp313
g14
I00
sg32
I01
sg15
I00
sg165
g0
(g166
g2
Ntp314
Rp315
(dp316
g14
I00
sg32
I00
sg71
I24680
sg15
I00
sbsg11
(lp317
g165
ag171
asg171
g173
sbsg249
g0
(g161
g2
Ntp318
Rp319
(dp320
g14
I00
sg32
I01
sg15
I00
sg165
g0
(g166
g2
Ntp321
Rp322
(dp323
g14
I00
sg32
I00
sg71
I98765432
sg15
I00
sbsg11
(lp324
g165
ag171
asg171
g185
sbsg250
g0
(g161
g2
Ntp325
Rp326
(dp327
g14
I00
sg32
I01
sg15
I00
sg165
g0
(g166
g2
Ntp328
Rp329
(dp330
g14
I00
sg32
I00
sg71
I87654321
sg15
I00
sbsg11
(lp331
g165
ag171
asg171
g173
sbsg251
g0
(g161
g2
Ntp332
Rp333
(dp334
g14
I00
sg32
I01
sg15
I00
sg165
g0
(g166
g2
Ntp335
Rp336
(dp337
g14
I00
sg32
I00
sg71
I654321
sg15
I00
sbsg11
(lp338
g165
ag171
asg171
g173
sbsg261
g0
(g161
g2
Ntp339
Rp340
(dp341
g14
I00
sg32
I01
sg15
I00
sg165
g0
(g166
g2
Ntp342
Rp343
(dp344
g14
I00
sg32
I00
sg71
I12345
sg15
I00
sbsg11
(lp345
g165
ag171
asg171
g185
sbsg240
g0
(g161
g2
Ntp346
Rp347
(dp348
g14
I00
sg32
I01
sg15
I00
sg165
g0
(g166
g2
Ntp349
Rp350
(dp351
g14
I00
sg32
I00
sg71
I918273
sg15
I00
sbsg11
(lp352
g165
ag171
asg171
g173
sbsg253
g0
(g161
g2
Ntp353
Rp354
(dp355
g14
I00
sg32
I01
sg15
I00
sg165
g0
(g166
g2
Ntp356
Rp357
(dp358
g14
I00
sg32
I00
sg71
I11
sg15
I00
sbsg11
(lp359
g165
ag171
asg171
g185
sbsg254
g0
(g161
g2
Ntp360
Rp361
(dp362
g14
I00
sg32
I01
sg15
I00
sg165
g0
(g166
g2
Ntp363
Rp364
(dp365
g14
I00
sg32
I00
sg71
I987346
sg15
I00
sbsg11
(lp366
g165
ag171
asg171
g173
sbsg255
g0
(g161
g2
Ntp367
Rp368
(dp369
g14
I00
sg32
I01
sg15
I00
sg165
g0
(g166
g2
Ntp370
Rp371
(dp372
g14
I00
sg32
I00
sg71
I11
sg15
I00
sbsg11
(lp373
g165
ag171
asg171
g185
sbsg256
g0
(g161
g2
Ntp374
Rp375
(dp376
g14
I00
sg32
I01
sg15
I00
sg165
g0
(g166
g2
Ntp377
Rp378
(dp379
g14
I00
sg32
I00
sg71
I88776655
sg15
I00
sbsg11
(lp380
g165
ag171
asg171
g173
sbsg257
g0
(g161
g2
Ntp381
Rp382
(dp383
g14
I00
sg32
I01
sg15
I00
sg165
g0
(g166
g2
Ntp384
Rp385
(dp386
g14
I00
sg32
I00
sg71
I918273
sg15
I00
sbsg11
(lp387
g165
ag171
asg171
g173
sbsg258
g0
(g161
g2
Ntp388
Rp389
(dp390
g14
I00
sg32
I01
sg15
I00
sg165
g0
(g166
g2
Ntp391
Rp392
(dp393
g14
I00
sg32
I00
sg71
I6453209
sg15
I00
sbsg11
(lp394
g165
ag171
asg171
g173
sbsg15
I00
sg259
g0
(g161
g2
Ntp395
Rp396
(dp397
g14
I00
sg32
I01
sg15
I00
sg165
g0
(g166
g2
Ntp398
Rp399
(dp400
g14
I00
sg32
I00
sg71
I87654321
sg15
I00
sbsg11
(lp401
g165
ag171
asg171
g185
sbsg260
g0
(g161
g2
Ntp402
Rp403
(dp404
g14
I00
sg32
I01
sg15
I00
sg165
g0
(g166
g2
Ntp405
Rp406
(dp407
g14
I00
sg32
I00
sg71
I11223344
sg15
I00
sbsg11
(lp408
g165
ag171
asg171
g185
sbsg252
g0
(g161
g2
Ntp409
Rp410
(dp411
g14
I00
sg32
I01
sg15
I00
sg165
g0
(g166
g2
Ntp412
Rp413
(dp414
g14
I00
sg32
I00
sg71
I541321
sg15
I00
sbsg11
(lp415
g165
ag171
asg171
g173
sbsg17
g18
sbsS'CaloTowerGeometryFromDBEP'
p416
g0
(g7
g2
Ntp417
Rp418
(dp419
g11
(lp420
S'applyAlignment'
p421
asg14
I00
sg15
I00
sg16
I56
sg17
g18
sg34
g416
sg421
g0
(g82
g2
Ntp422
Rp423
(dp424
g14
I00
sg32
I01
sg71
I00
sg15
I00
sbsg35
g416
sbsg38
g41
sS'_Process__InExtendCall'
p425
I00
sS'_Process__producers'
p426
(dp427
S'randomEngineStateProducer'
p428
g0
(cFWCore.ParameterSet.Modules
EDProducer
p429
g2
Ntp430
Rp431
(dp432
g11
(lp433
sg14
I00
sg15
I00
sg16
I162
sg17
S'/cvmfs/cms.cern.ch/slc7_amd64_gcc820/cms/cmssw-patch/CMSSW_10_6_4_patch1/python/IOMC/RandomEngine/IOMC_cff.py'
p434
sg34
g428
sg35
S'RandomEngineStateProducer'
p435
sbssS'siPixelQualityESProducer'
p436
g0
(g7
g2
Ntp437
Rp438
(dp439
g11
(lp440
S'siPixelQualityLabel'
p441
aS'ListOfRecordToMerge'
p442
asg14
I00
sg15
I01
sg16
I56
sg441
g0
(g67
g2
Ntp443
Rp444
(dp445
g14
I00
sg32
I01
sg71
g72
sg15
I00
sbsg17
g18
sg442
g0
(cFWCore.ParameterSet.Types
VPSet
p446
g20
(lp447
g0
(g161
g2
Ntp448
Rp449
(dp450
g14
I00
sg32
I01
sg15
I00
sS'record'
p451
g0
(g67
g2
Ntp452
Rp453
(dp454
g14
I00
sg32
I01
sg71
S'SiPixelQualityFromDbRcd'
p455
sg15
I00
sbsS'tag'
p456
g0
(g67
g2
Ntp457
Rp458
(dp459
g14
I00
sg32
I01
sg71
g72
sg15
I00
sbsg11
(lp460
g451
ag456
asbag0
(g161
g2
Ntp461
Rp462
(dp463
g14
I00
sg32
I01
sg15
I00
sg451
g0
(g67
g2
Ntp464
Rp465
(dp466
g14
I00
sg32
I01
sg71
S'SiPixelDetVOffRcd'
p467
sg15
I00
sbsg456
g0
(g67
g2
Ntp468
Rp469
(dp470
g14
I00
sg32
I01
sg71
g72
sg15
I00
sbsg11
(lp471
g451
ag456
asbatp472
Rp473
(dp474
g14
I00
sg32
I01
sg15
I00
sg33
I1
sbsg34
g436
sg35
S'SiPixelQualityESProducer'
p475
sbsS'GlobalTag'
p476
g0
(cFWCore.ParameterSet.Modules
ESSource
p477
g2
Ntp478
Rp479
(dp480
g11
(lp481
S'DBParameters'
p482
aS'connect'
p483
aS'globaltag'
p484
aS'RefreshEachRun'
p485
aS'pfnPrefix'
p486
aS'snapshotTime'
p487
aS'toGet'
p488
aS'pfnPostfix'
p489
aS'RefreshAlways'
p490
aS'ReconnectEachRun'
p491
aS'RefreshOpenIOVs'
p492
aS'DumpStat'
p493
asg14
I00
sg17
S'/cvmfs/cms.cern.ch/slc7_amd64_gcc820/cms/cmssw-patch/CMSSW_10_6_4_patch1/python/CondCore/ESSources/CondDBESSource_cfi.py'
p494
sg15
I00
sg484
g0
(g67
g2
Ntp495
Rp496
(dp497
g14
I00
sg32
I01
sg71
g72
sg15
I00
sbsg485
g0
(g82
g2
Ntp498
Rp499
(dp500
g14
I00
sg32
I00
sg71
I00
sg15
I00
sbsg486
g0
(g67
g2
Ntp501
Rp502
(dp503
g14
I00
sg32
I00
sg71
g72
sg15
I00
sbsg487
g0
(g67
g2
Ntp504
Rp505
(dp506
g14
I00
sg32
I01
sg71
g72
sg15
I00
sbsg488
g0
(g446
g20
(lp507
tp508
Rp509
(dp510
g14
I00
sg32
I01
sg15
I00
sg33
I1
sbsg489
g0
(g67
g2
Ntp511
Rp512
(dp513
g14
I00
sg32
I00
sg71
g72
sg15
I00
sbsg482
g0
(g161
g2
Ntp514
Rp515
(dp516
g14
I00
sg32
I01
sS'authenticationPath'
p517
g0
(g67
g2
Ntp518
Rp519
(dp520
g14
I00
sg32
I00
sg71
g72
sg15
I00
sbsg15
I00
sS'messageLevel'
p521
g0
(cFWCore.ParameterSet.Types
int32
p522
g2
Ntp523
Rp524
(dp525
g14
I00
sg32
I00
sg71
I0
sg15
I00
sbsg11
(lp526
g521
aS'security'
p527
aS'authenticationSystem'
p528
ag517
asg527
g0
(g67
g2
Ntp529
Rp530
(dp531
g14
I00
sg32
I00
sg71
g72
sg15
I00
sbsg528
g0
(g522
g2
Ntp532
Rp533
(dp534
g14
I00
sg32
I00
sg71
I0
sg15
I00
sbsbsg490
g0
(g82
g2
Ntp535
Rp536
(dp537
g14
I00
sg32
I00
sg71
I00
sg15
I00
sbsg16
I19
sg483
g0
(g67
g2
Ntp538
Rp539
(dp540
g14
I00
sg32
I01
sg71
S'frontier://FrontierProd/CMS_CONDITIONS'
p541
sg15
I00
sbsg491
g0
(g82
g2
Ntp542
Rp543
(dp544
g14
I00
sg32
I00
sg71
I00
sg15
I00
sbsg34
g476
sg492
g0
(g82
g2
Ntp545
Rp546
(dp547
g14
I00
sg32
I00
sg71
I00
sg15
I00
sbsg493
g0
(g82
g2
Ntp548
Rp549
(dp550
g14
I00
sg32
I00
sg71
I00
sg15
I00
sbsg35
S'PoolDBESSource'
p551
sbsS'_Process__endpaths'
p552
g0
(cFWCore.ParameterSet.DictTypes
SortedKeysDict
p553
c__builtin__
dict
p554
(dp555
tp556
Rp557
(dp558
S'list'
p559
(lp560
sbsS'MuonDetLayerGeometryESProducer'
p561
g0
(g7
g2
Ntp562
Rp563
(dp564
g11
(lp565
sg14
I00
sg15
I00
sg16
I56
sg17
g18
sg34
g561
sg35
g561
sbsS'EcalEndcapGeometryFromDBEP'
p566
g0
(g7
g2
Ntp567
Rp568
(dp569
g11
(lp570
g421
asg14
I00
sg15
I01
sg16
I56
sg17
g18
sg34
g566
sg421
g0
(g82
g2
Ntp571
Rp572
(dp573
g14
I00
sg32
I01
sg71
I01
sg15
I01
sbsg35
g566
sbsS'MessageLogger'
p574
g0
(g134
g2
Ntp575
Rp576
(dp577
g14
I00
sS'suppressInfo'
p578
g0
(g19
g20
(lp579
tp580
Rp581
(dp582
g14
I00
sg32
I00
sg15
I00
sg33
I1
sbsS'suppressDebug'
p583
g0
(g19
g20
(lp584
tp585
Rp586
(dp587
g14
I00
sg32
I00
sg15
I00
sg33
I1
sbsS'cout'
p588
g0
(g161
g2
Ntp589
Rp590
(dp591
g14
I00
sg32
I00
sS'placeholder'
p592
g0
(g82
g2
Ntp593
Rp594
(dp595
g14
I00
sg32
I00
sg71
I01
sg15
I00
sbsg15
I00
sg11
(lp596
g592
asbsg16
I14
sS'debugModules'
p597
g0
(g19
g20
(lp598
tp599
Rp600
(dp601
g14
I00
sg32
I00
sg15
I00
sg33
I1
sbsg35
g574
sS'fwkJobReports'
p602
g0
(g19
g20
(lp603
S'FrameworkJobReport'
p604
atp605
Rp606
(dp607
g14
I00
sg32
I00
sg15
I00
sg33
I1
sbsg11
(lp608
g578
aS'debugs'
p609
ag583
ag588
aS'cerr_stats'
p610
aS'warnings'
p611
aS'default'
p612
aS'statistics'
p613
aS'cerr'
p614
ag604
aS'suppressWarning'
p615
aS'errors'
p616
aS'destinations'
p617
ag597
aS'infos'
p618
aS'categories'
p619
ag602
asg613
g0
(g19
g20
(lp620
g610
atp621
Rp622
(dp623
g14
I00
sg32
I00
sg15
I00
sg33
I1
sbsg17
g18
sg617
g0
(g19
g20
(lp624
g611
ag616
ag618
ag609
ag588
ag614
atp625
Rp626
(dp627
g14
I00
sg32
I00
sg15
I00
sg33
I1
sbsg609
g0
(g161
g2
Ntp628
Rp629
(dp630
g14
I00
sg32
I00
sg592
g0
(g82
g2
Ntp631
Rp632
(dp633
g14
I00
sg32
I00
sg71
I01
sg15
I00
sbsg15
I00
sg11
(lp634
g592
asbsg611
g0
(g161
g2
Ntp635
Rp636
(dp637
g14
I00
sg32
I00
sg592
g0
(g82
g2
Ntp638
Rp639
(dp640
g14
I00
sg32
I00
sg71
I01
sg15
I00
sbsg15
I00
sg11
(lp641
g592
asbsg616
g0
(g161
g2
Ntp642
Rp643
(dp644
g14
I00
sg32
I00
sg592
g0
(g82
g2
Ntp645
Rp646
(dp647
g14
I00
sg32
I00
sg71
I01
sg15
I00
sbsg15
I00
sg11
(lp648
g592
asbsg604
g0
(g161
g2
Ntp649
Rp650
(dp651
g14
I00
sg32
I00
sg15
I00
sg612
g0
(g161
g2
Ntp652
Rp653
(dp654
g14
I00
sg32
I00
sS'limit'
p655
g0
(g522
g2
Ntp656
Rp657
(dp658
g14
I00
sg32
I00
sg71
I0
sg15
I00
sbsg15
I00
sg11
(lp659
g655
asbsS'FwkJob'
p660
g0
(g161
g2
Ntp661
Rp662
(dp663
g14
I00
sg32
I00
sg15
I00
sg655
g0
(g522
g2
Ntp664
Rp665
(dp666
g14
I00
sg32
I00
sg71
I10000000
sg15
I00
sbsg11
(lp667
S'optionalPSet'
p668
ag655
asg668
g0
(g82
g2
Ntp669
Rp670
(dp671
g14
I00
sg32
I00
sg71
I01
sg15
I00
sbsbsg11
(lp672
g612
ag668
ag660
asg668
g0
(g82
g2
Ntp673
Rp674
(dp675
g14
I00
sg32
I00
sg71
I01
sg15
I00
sbsbsg615
g0
(g19
g20
(lp676
tp677
Rp678
(dp679
g14
I00
sg32
I00
sg15
I00
sg33
I1
sbsg618
g0
(g161
g2
Ntp680
Rp681
(dp682
g14
I00
sg32
I00
sg15
I00
sS'Root_NoDictionary'
p683
g0
(g161
g2
Ntp684
Rp685
(dp686
g14
I00
sg32
I00
sg15
I00
sg655
g0
(g522
g2
Ntp687
Rp688
(dp689
g14
I00
sg32
I00
sg71
I0
sg15
I00
sbsg11
(lp690
g668
ag655
asg668
g0
(g82
g2
Ntp691
Rp692
(dp693
g14
I00
sg32
I00
sg71
I01
sg15
I00
sbsbsg11
(lp694
g668
ag683
ag592
asg668
g0
(g82
g2
Ntp695
Rp696
(dp697
g14
I00
sg32
I00
sg71
I01
sg15
I00
sbsg592
g0
(g82
g2
Ntp698
Rp699
(dp700
g14
I00
sg32
I00
sg71
I01
sg15
I00
sbsbsg619
g0
(g19
g20
(lp701
g660
aS'FwkReport'
p702
aS'FwkSummary'
p703
ag683
atp704
Rp705
(dp706
g14
I00
sg32
I00
sg15
I00
sg33
I1
sbsg15
I00
sg610
g0
(g161
g2
Ntp707
Rp708
(dp709
g14
I00
sg32
I00
sg15
I00
sg668
g0
(g82
g2
Ntp710
Rp711
(dp712
g14
I00
sg32
I00
sg71
I01
sg15
I00
sbsg11
(lp713
S'threshold'
p714
aS'output'
p715
ag668
asg714
g0
(g67
g2
Ntp716
Rp717
(dp718
g14
I00
sg32
I00
sg71
S'WARNING'
p719
sg15
I00
sbsg715
g0
(g67
g2
Ntp720
Rp721
(dp722
g14
I00
sg32
I00
sg71
g614
sg15
I00
sbsbsg612
g0
(g161
g2
Ntp723
Rp724
(dp725
g14
I00
sg32
I00
sg15
I00
sg11
(lp726
sbsg140
I00
sg614
g0
(g161
g2
Ntp727
Rp728
(dp729
g14
I00
sg32
I00
sS'noTimeStamps'
p730
g0
(g82
g2
Ntp731
Rp732
(dp733
g14
I00
sg32
I00
sg71
I00
sg15
I00
sbsg702
g0
(g161
g2
Ntp734
Rp735
(dp736
g14
I00
sg32
I00
sg15
I01
sS'reportEvery'
p737
g0
(g522
g2
Ntp738
Rp739
(dp740
g14
I00
sg32
I00
sg71
I1000
sg15
I01
sbsg655
g0
(g522
g2
Ntp741
Rp742
(dp743
g14
I00
sg32
I00
sg71
I10000000
sg15
I00
sbsg11
(lp744
g737
ag668
ag655
asg668
g0
(g82
g2
Ntp745
Rp746
(dp747
g14
I00
sg32
I00
sg71
I01
sg15
I00
sbsbsg15
I00
sg612
g0
(g161
g2
Ntp748
Rp749
(dp750
g14
I00
sg32
I00
sg655
g0
(g522
g2
Ntp751
Rp752
(dp753
g14
I00
sg32
I00
sg71
I10000000
sg15
I00
sbsg15
I00
sg11
(lp754
g655
asbsg683
g0
(g161
g2
Ntp755
Rp756
(dp757
g14
I00
sg32
I00
sg15
I00
sg655
g0
(g522
g2
Ntp758
Rp759
(dp760
g14
I00
sg32
I00
sg71
I0
sg15
I00
sbsg11
(lp761
g668
ag655
asg668
g0
(g82
g2
Ntp762
Rp763
(dp764
g14
I00
sg32
I00
sg71
I01
sg15
I00
sbsbsS'INFO'
p765
g0
(g161
g2
Ntp766
Rp767
(dp768
g14
I00
sg32
I00
sg655
g0
(g522
g2
Ntp769
Rp770
(dp771
g14
I00
sg32
I00
sg71
I0
sg15
I00
sbsg15
I00
sg11
(lp772
g655
asbsg668
g0
(g82
g2
Ntp773
Rp774
(dp775
g14
I00
sg32
I00
sg71
I01
sg15
I00
sbsg660
g0
(g161
g2
Ntp776
Rp777
(dp778
g14
I00
sg32
I00
sg15
I00
sg655
g0
(g522
g2
Ntp779
Rp780
(dp781
g14
I00
sg32
I00
sg71
I0
sg15
I00
sbsg11
(lp782
g668
ag655
asg668
g0
(g82
g2
Ntp783
Rp784
(dp785
g14
I00
sg32
I00
sg71
I01
sg15
I00
sbsbsg703
g0
(g161
g2
Ntp786
Rp787
(dp788
g14
I00
sg32
I00
sg15
I00
sg737
g0
(g522
g2
Ntp789
Rp790
(dp791
g14
I00
sg32
I00
sg71
I1
sg15
I00
sbsg655
g0
(g522
g2
Ntp792
Rp793
(dp794
g14
I00
sg32
I00
sg71
I10000000
sg15
I00
sbsg11
(lp795
g737
ag668
ag655
asg668
g0
(g82
g2
Ntp796
Rp797
(dp798
g14
I00
sg32
I00
sg71
I01
sg15
I00
sbsbsg11
(lp799
g765
ag730
ag702
ag612
ag683
ag714
ag660
ag703
ag668
asg714
g0
(g67
g2
Ntp800
Rp801
(dp802
g14
I00
sg32
I00
sg71
g765
sg15
I00
sbsbsbsS'_Process__services'
p803
(dp804
g574
g576
sS'DQMStore'
p805
g0
(g134
g2
Ntp806
Rp807
(dp808
g11
(lp809
S'referenceFileName'
p810
aS'verbose'
p811
aS'collateHistograms'
p812
aS'enableMultiThread'
p813
aS'forceResetOnBeginLumi'
p814
aS'saveByLumi'
p815
aS'LSbasedMode'
p816
aS'verboseQT'
p817
asg14
I00
sg140
I01
sg811
g0
(g522
g2
Ntp818
Rp819
(dp820
g14
I00
sg32
I00
sg71
I0
sg15
I00
sbsg812
g0
(g82
g2
Ntp821
Rp822
(dp823
g14
I00
sg32
I00
sg71
I00
sg15
I00
sbsg810
g0
(g67
g2
Ntp824
Rp825
(dp826
g14
I00
sg32
I00
sg71
g72
sg15
I00
sbsg813
g0
(g82
g2
Ntp827
Rp828
(dp829
g14
I00
sg32
I00
sg71
I00
sg15
I00
sbsg814
g0
(g82
g2
Ntp830
Rp831
(dp832
g14
I00
sg32
I00
sg71
I00
sg15
I00
sbsg16
I14
sg815
g0
(g82
g2
Ntp833
Rp834
(dp835
g14
I00
sg32
I00
sg71
I00
sg15
I00
sbsg816
g0
(g82
g2
Ntp836
Rp837
(dp838
g14
I00
sg32
I00
sg71
I00
sg15
I00
sbsg17
g18
sg817
g0
(g522
g2
Ntp839
Rp840
(dp841
g14
I00
sg32
I00
sg71
I0
sg15
I00
sbsg35
g805
sg15
I00
sbsg156
g158
sg133
g136
ssg66
g52
sg805
g807
sS'HcalTimeSlewEP'
p842
g0
(g477
g2
Ntp843
Rp844
(dp845
g11
(lp846
S'timeSlewParametersM3'
p847
aS'timeSlewParametersM2'
p848
ag150
asg14
I00
sg847
g0
(g446
g20
(lp849
g0
(g161
g2
Ntp850
Rp851
(dp852
g14
I00
sg32
I01
sS'tspar2'
p853
g0
(cFWCore.ParameterSet.Types
double
p854
g2
Ntp855
Rp856
(dp857
g14
I00
sg32
I01
sg71
F0.0
sg15
I00
sbsg15
I00
sS'tspar0'
p858
g0
(g854
g2
Ntp859
Rp860
(dp861
g14
I00
sg32
I01
sg71
F12.2999
sg15
I00
sbsS'tspar1'
p862
g0
(g854
g2
Ntp863
Rp864
(dp865
g14
I00
sg32
I01
sg71
F-2.19142
sg15
I00
sbsS'tspar1_siPM'
p866
g0
(g854
g2
Ntp867
Rp868
(dp869
g14
I00
sg32
I01
sg71
F0.0
sg15
I00
sbsS'cap'
p870
g0
(g854
g2
Ntp871
Rp872
(dp873
g14
I00
sg32
I01
sg71
F6.0
sg15
I00
sbsS'tspar0_siPM'
p874
g0
(g854
g2
Ntp875
Rp876
(dp877
g14
I00
sg32
I01
sg71
F0.0
sg15
I00
sbsg11
(lp878
g853
ag858
ag862
ag866
ag870
ag874
aS'tspar2_siPM'
p879
asg879
g0
(g854
g2
Ntp880
Rp881
(dp882
g14
I00
sg32
I01
sg71
F0.0
sg15
I00
sbsbag0
(g161
g2
Ntp883
Rp884
(dp885
g14
I00
sg32
I01
sg853
g0
(g854
g2
Ntp886
Rp887
(dp888
g14
I00
sg32
I01
sg71
F32.0
sg15
I00
sbsg15
I00
sg858
g0
(g854
g2
Ntp889
Rp890
(dp891
g14
I00
sg32
I01
sg71
F15.5
sg15
I00
sbsg862
g0
(g854
g2
Ntp892
Rp893
(dp894
g14
I00
sg32
I01
sg71
F-3.2
sg15
I00
sbsg866
g0
(g854
g2
Ntp895
Rp896
(dp897
g14
I00
sg32
I01
sg71
F0.0
sg15
I00
sbsg870
g0
(g854
g2
Ntp898
Rp899
(dp900
g14
I00
sg32
I01
sg71
F6.0
sg15
I00
sbsg874
g0
(g854
g2
Ntp901
Rp902
(dp903
g14
I00
sg32
I01
sg71
F0.0
sg15
I00
sbsg11
(lp904
g853
ag858
ag862
ag866
ag870
ag874
ag879
asg879
g0
(g854
g2
Ntp905
Rp906
(dp907
g14
I00
sg32
I01
sg71
F0.0
sg15
I00
sbsbag0
(g161
g2
Ntp908
Rp909
(dp910
g14
I00
sg32
I01
sg853
g0
(g854
g2
Ntp911
Rp912
(dp913
g14
I00
sg32
I01
sg71
F0.0
sg15
I00
sbsg15
I00
sg858
g0
(g854
g2
Ntp914
Rp915
(dp916
g14
I00
sg32
I01
sg71
F12.2999
sg15
I00
sbsg862
g0
(g854
g2
Ntp917
Rp918
(dp919
g14
I00
sg32
I01
sg71
F-2.19142
sg15
I00
sbsg866
g0
(g854
g2
Ntp920
Rp921
(dp922
g14
I00
sg32
I01
sg71
F0.0
sg15
I00
sbsg870
g0
(g854
g2
Ntp923
Rp924
(dp925
g14
I00
sg32
I01
sg71
F6.0
sg15
I00
sbsg874
g0
(g854
g2
Ntp926
Rp927
(dp928
g14
I00
sg32
I01
sg71
F0.0
sg15
I00
sbsg11
(lp929
g853
ag858
ag862
ag866
ag870
ag874
ag879
asg879
g0
(g854
g2
Ntp930
Rp931
(dp932
g14
I00
sg32
I01
sg71
F0.0
sg15
I00
sbsbag0
(g161
g2
Ntp933
Rp934
(dp935
g14
I00
sg32
I01
sg853
g0
(g854
g2
Ntp936
Rp937
(dp938
g14
I00
sg32
I01
sg71
F0.0
sg15
I00
sbsg15
I00
sg858
g0
(g854
g2
Ntp939
Rp940
(dp941
g14
I00
sg32
I01
sg71
F12.2999
sg15
I00
sbsg862
g0
(g854
g2
Ntp942
Rp943
(dp944
g14
I00
sg32
I01
sg71
F-2.19142
sg15
I00
sbsg866
g0
(g854
g2
Ntp945
Rp946
(dp947
g14
I00
sg32
I01
sg71
F0.0
sg15
I00
sbsg870
g0
(g854
g2
Ntp948
Rp949
(dp950
g14
I00
sg32
I01
sg71
F6.0
sg15
I00
sbsg874
g0
(g854
g2
Ntp951
Rp952
(dp953
g14
I00
sg32
I01
sg71
F0.0
sg15
I00
sbsg11
(lp954
g853
ag858
ag862
ag866
ag870
ag874
ag879
asg879
g0
(g854
g2
Ntp955
Rp956
(dp957
g14
I00
sg32
I01
sg71
F0.0
sg15
I00
sbsbatp958
Rp959
(dp960
g14
I00
sg32
I01
sg15
I00
sg33
I1
sbsg848
g0
(g446
g20
(lp961
g0
(g161
g2
Ntp962
Rp963
(dp964
g14
I00
sg32
I01
sg15
I00
sS'slope'
p965
g0
(g854
g2
Ntp966
Rp967
(dp968
g14
I00
sg32
I01
sg71
F-3.178648
sg15
I00
sbsS'tmax'
p969
g0
(g854
g2
Ntp970
Rp971
(dp972
g14
I00
sg32
I01
sg71
F16.0
sg15
I00
sbsS'tzero'
p973
g0
(g854
g2
Ntp974
Rp975
(dp976
g14
I00
sg32
I01
sg71
F23.960177
sg15
I00
sbsg11
(lp977
g965
ag969
ag973
asbag0
(g161
g2
Ntp978
Rp979
(dp980
g14
I00
sg32
I01
sg15
I00
sg965
g0
(g854
g2
Ntp981
Rp982
(dp983
g14
I00
sg32
I01
sg71
F-1.5610227
sg15
I00
sbsg969
g0
(g854
g2
Ntp984
Rp985
(dp986
g14
I00
sg32
I01
sg71
F10.0
sg15
I00
sbsg973
g0
(g854
g2
Ntp987
Rp988
(dp989
g14
I00
sg32
I01
sg71
F11.977461
sg15
I00
sbsg11
(lp990
g965
ag969
ag973
asbag0
(g161
g2
Ntp991
Rp992
(dp993
g14
I00
sg32
I01
sg15
I00
sg965
g0
(g854
g2
Ntp994
Rp995
(dp996
g14
I00
sg32
I01
sg71
F-1.075824
sg15
I00
sbsg969
g0
(g854
g2
Ntp997
Rp998
(dp999
g14
I00
sg32
I01
sg71
F6.25
sg15
I00
sbsg973
g0
(g854
g2
Ntp1000
Rp1001
(dp1002
g14
I00
sg32
I01
sg71
F9.109694
sg15
I00
sbsg11
(lp1003
g965
ag969
ag973
asbatp1004
Rp1005
(dp1006
g14
I00
sg32
I01
sg15
I00
sg33
I1
sbsg15
I00
sg16
I23
sg17
S'/cvmfs/cms.cern.ch/slc7_amd64_gcc820/cms/cmssw-patch/CMSSW_10_6_4_patch1/python/CalibCalorimetry/HcalPlugins/HcalTimeSlew_cff.py'
p1007
sg150
g0
(g67
g2
Ntp1008
Rp1009
(dp1010
g14
I00
sg32
I01
sg71
S'HBHE'
p1011
sg15
I00
sbsg34
g842
sg35
g842
sbsS'CastorGeometryFromDBEP'
p1012
g0
(g7
g2
Ntp1013
Rp1014
(dp1015
g11
(lp1016
g421
asg14
I00
sg15
I00
sg16
I56
sg17
g18
sg34
g1012
sg421
g0
(g82
g2
Ntp1017
Rp1018
(dp1019
g14
I00
sg32
I01
sg71
I00
sg15
I00
sbsg35
g1012
sbsS'HFRecalParameterBlock'
p1020
g0
(g161
g2
Ntp1021
Rp1022
(dp1023
g14
I00
sg32
I01
sg15
I00
sS'HFdepthTwoParameterA'
p1024
g0
(cFWCore.ParameterSet.Types
vdouble
p1025
g20
(lp1026
F0.002861
aF0.004168
aF0.0064
aF0.008388
aF0.011601
aF0.014425
aF0.018633
aF0.023232
aF0.028274
aF0.035447
aF0.051579
aF0.086593
atp1027
Rp1028
(dp1029
g14
I00
sg32
I01
sg15
I00
sbsS'HFdepthOneParameterA'
p1030
g0
(g1025
g20
(lp1031
F0.004123
aF0.00602
aF0.008201
aF0.010489
aF0.013379
aF0.016997
aF0.021464
aF0.027371
aF0.034195
aF0.044807
aF0.058939
aF0.125497
atp1032
Rp1033
(dp1034
g14
I00
sg32
I01
sg15
I00
sbsS'HFdepthOneParameterB'
p1035
g0
(g1025
g20
(lp1036
F-4e-06
aF-2e-06
aF0.0
aF4e-06
aF1.5e-05
aF2.6e-05
aF6.3e-05
aF8.4e-05
aF0.00016
aF0.000107
aF0.000425
aF0.000209
atp1037
Rp1038
(dp1039
g14
I00
sg32
I01
sg15
I00
sbsS'HFdepthTwoParameterB'
p1040
g0
(g1025
g20
(lp1041
F-2e-06
aF-0.0
aF-7e-06
aF-6e-06
aF-2e-06
aF1e-06
aF1.9e-05
aF3.1e-05
aF6.7e-05
aF1.2e-05
aF0.000157
aF-3e-06
atp1042
Rp1043
(dp1044
g14
I00
sg32
I01
sg15
I00
sbsg11
(lp1045
g1030
ag1035
ag1040
ag1024
asg34
g1020
sbsS'trackerGeometryDB'
p1046
g0
(g7
g2
Ntp1047
Rp1048
(dp1049
g11
(lp1050
g150
aS'fromDDD'
p1051
ag421
aS'alignmentsLabel'
p1052
asg14
I00
sg150
g0
(g67
g2
Ntp1053
Rp1054
(dp1055
g14
I00
sg32
I01
sg71
g72
sg15
I00
sbsg15
I00
sg1052
g0
(g67
g2
Ntp1056
Rp1057
(dp1058
g14
I00
sg32
I01
sg71
g72
sg15
I00
sbsg17
g18
sg16
I56
sg34
g1046
sg1051
g0
(g82
g2
Ntp1059
Rp1060
(dp1061
g14
I00
sg32
I01
sg71
I00
sg15
I00
sbsg421
g0
(g82
g2
Ntp1062
Rp1063
(dp1064
g14
I00
sg32
I01
sg71
I01
sg15
I00
sbsg35
S'TrackerDigiGeometryESModule'
p1065
sbsS'eegeom'
p1066
g0
(g477
g2
Ntp1067
Rp1068
(dp1069
g11
(lp1070
S'iovIsRunNotTime'
p1071
aS'recordName'
p1072
aS'firstValid'
p1073
asg14
I00
sg15
I00
sg16
I6
sg1072
g0
(g67
g2
Ntp1074
Rp1075
(dp1076
g14
I00
sg32
I01
sg71
S'EcalMappingRcd'
p1077
sg15
I00
sbsg17
S'/cvmfs/cms.cern.ch/slc7_amd64_gcc820/cms/cmssw-patch/CMSSW_10_6_4_patch1/python/Geometry/EcalMapping/EcalMappingRecord_cfi.py'
p1078
sg1073
g0
(cFWCore.ParameterSet.Types
vuint32
p1079
g20
(lp1080
I1
atp1081
Rp1082
(dp1083
g14
I00
sg32
I01
sg15
I00
sbsg34
g1066
sg1071
g0
(g82
g2
Ntp1084
Rp1085
(dp1086
g14
I00
sg32
I01
sg71
I01
sg15
I00
sbsg35
S'EmptyESSource'
p1087
sbsS'_Process__vpsets'
p1088
(dp1089
sS'EcalTrigTowerConstituentsMapBuilder'
p1090
g0
(g7
g2
Ntp1091
Rp1092
(dp1093
g11
(lp1094
S'MapFile'
p1095
asg14
I00
sg15
I00
sg1095
g0
(g67
g2
Ntp1096
Rp1097
(dp1098
g14
I00
sg32
I00
sg71
S'Geometry/EcalMapping/data/EndCap_TTMap.txt'
p1099
sg15
I00
sbsg17
g18
sg16
I56
sg34
g1090
sg35
g1090
sbsS'siStripBackPlaneCorrectionDepESProducer'
p1100
g0
(g7
g2
Ntp1101
Rp1102
(dp1103
g11
(lp1104
S'LatencyRecord'
p1105
aS'BackPlaneCorrectionDeconvMode'
p1106
aS'BackPlaneCorrectionPeakMode'
p1107
asg14
I00
sg15
I00
sg16
I56
sg17
g18
sg1105
g0
(g161
g2
Ntp1108
Rp1109
(dp1110
g14
I00
sg32
I01
sg15
I00
sg123
g0
(g67
g2
Ntp1111
Rp1112
(dp1113
g14
I00
sg32
I00
sg71
g72
sg15
I00
sbsg451
g0
(g67
g2
Ntp1114
Rp1115
(dp1116
g14
I00
sg32
I01
sg71
S'SiStripLatencyRcd'
p1117
sg15
I00
sbsg11
(lp1118
g451
ag123
asbsg1107
g0
(g161
g2
Ntp1119
Rp1120
(dp1121
g14
I00
sg32
I01
sg15
I00
sg123
g0
(g67
g2
Ntp1122
Rp1123
(dp1124
g14
I00
sg32
I00
sg71
S'peak'
p1125
sg15
I00
sbsg451
g0
(g67
g2
Ntp1126
Rp1127
(dp1128
g14
I00
sg32
I01
sg71
S'SiStripBackPlaneCorrectionRcd'
p1129
sg15
I00
sbsg11
(lp1130
g451
ag123
asbsg34
g1100
sg1106
g0
(g161
g2
Ntp1131
Rp1132
(dp1133
g14
I00
sg32
I01
sg15
I00
sg123
g0
(g67
g2
Ntp1134
Rp1135
(dp1136
g14
I00
sg32
I00
sg71
S'deconvolution'
p1137
sg15
I00
sbsg451
g0
(g67
g2
Ntp1138
Rp1139
(dp1140
g14
I00
sg32
I01
sg71
g1129
sg15
I00
sbsg11
(lp1141
g451
ag123
asbsg35
S'SiStripBackPlaneCorrectionDepESProducer'
p1142
sbsS'_Process__switchproducers'
p1143
(dp1144
sS'analyzer'
p1145
g0
(cFWCore.ParameterSet.Modules
EDAnalyzer
p1146
g2
Ntp1147
Rp1148
(dp1149
g11
(lp1150
S'beamSpotSrc'
p1151
aS'genEvtInfo'
p1152
aS'packedCandSrc'
p1153
aS'doGen'
p1154
aS'trackPtMin'
p1155
aS'jets2'
p1156
aS'genJets'
p1157
aS'puSummaryInfo'
p1158
aS'doTrack'
p1159
aS'vertexSrc'
p1160
aS'lostTracksSrc'
p1161
aS'packedGen'
p1162
asg14
I00
sg1151
g0
(g73
g2
Ntp1163
Rp1164
(dp1165
g14
I00
sg32
I00
sg15
I00
sg77
S'offlineBeamSpot'
p1166
sg80
g72
sg79
g72
sbsg1152
g0
(g73
g2
Ntp1167
Rp1168
(dp1169
g14
I00
sg32
I01
sg15
I00
sg77
g242
sg80
g72
sg79
g72
sbsg15
I00
sg1154
g0
(g82
g2
Ntp1170
Rp1171
(dp1172
g14
I00
sg32
I00
sg71
I01
sg15
I00
sbsg16
I56
sg17
g65
sg1161
g0
(g73
g2
Ntp1173
Rp1174
(dp1175
g14
I00
sg32
I01
sg15
I00
sg77
S'lostTracks'
p1176
sg80
g72
sg79
g72
sbsg34
g1145
sg1156
g0
(g73
g2
Ntp1177
Rp1178
(dp1179
g14
I00
sg32
I01
sg15
I00
sg77
S'slimmedJetsAK8'
p1180
sg80
g72
sg79
g72
sbsg1157
g0
(g73
g2
Ntp1181
Rp1182
(dp1183
g14
I00
sg32
I01
sg15
I00
sg77
S'slimmedGenJetsAK8'
p1184
sg80
g72
sg79
g72
sbsg1158
g0
(g73
g2
Ntp1185
Rp1186
(dp1187
g14
I00
sg32
I01
sg15
I00
sg77
S'slimmedAddPileupInfo'
p1188
sg80
g72
sg79
g72
sbsg1159
g0
(g82
g2
Ntp1189
Rp1190
(dp1191
g14
I00
sg32
I00
sg71
I00
sg15
I00
sbsg1160
g0
(g73
g2
Ntp1192
Rp1193
(dp1194
g14
I00
sg32
I01
sg15
I00
sg77
S'offlineSlimmedPrimaryVertices'
p1195
sg80
g72
sg79
g72
sbsg1162
g0
(g73
g2
Ntp1196
Rp1197
(dp1198
g14
I00
sg32
I01
sg15
I00
sg77
S'packedGenParticles'
p1199
sg80
g72
sg79
g72
sbsg1155
g0
(g854
g2
Ntp1200
Rp1201
(dp1202
g14
I00
sg32
I00
sg71
F0.01
sg15
I00
sbsg35
S'TrackAnalyzer'
p1203
sg1153
g0
(g73
g2
Ntp1204
Rp1205
(dp1206
g14
I00
sg32
I01
sg15
I00
sg77
S'packedPFCandidates'
p1207
sg80
g72
sg79
g72
sbsbsS'_Process__esprefers'
p1208
(dp1209
S'es_prefer_hcalHardcode'
p1210
g0
(cFWCore.ParameterSet.Modules
ESPrefer
p1211
g2
Ntp1212
Rp1213
(dp1214
g11
(lp1215
sg14
I00
sg15
I00
sS'_targetLabel'
p1216
S'es_hardcode'
p1217
sg16
I92
sg17
g18
sg34
g1210
sg35
S'HcalHardcodeCalibrations'
p1218
sbssS'_Process__isStrict'
p1219
I00
sS'HepPDTESSource'
p1220
g0
(g477
g2
Ntp1221
Rp1222
(dp1223
g11
(lp1224
S'pdtFileName'
p1225
asg14
I00
sg1225
g0
(cFWCore.ParameterSet.Types
FileInPath
p1226
g2
Ntp1227
Rp1228
(dp1229
g14
I00
sg32
I01
sg71
S'SimGeneral/HepPDTESSource/data/pythiaparticle.tbl'
p1230
sg15
I00
sbsg15
I00
sg16
I4
sg17
S'/cvmfs/cms.cern.ch/slc7_amd64_gcc820/cms/cmssw-patch/CMSSW_10_6_4_patch1/python/SimGeneral/HepPDTESSource/pythiapdt_cfi.py'
p1231
sg34
g1220
sg35
g1220
sbsS'_Process__outputmodules'
p1232
(dp1233
sS'_Process__analyzers'
p1234
(dp1235
g1145
g1148
ssS'idealForDigiTrackerGeometry'
p1236
g0
(g7
g2
Ntp1237
Rp1238
(dp1239
g11
(lp1240
g150
ag1051
ag421
ag1052
asg14
I00
sg150
g0
(g67
g2
Ntp1241
Rp1242
(dp1243
g14
I00
sg32
I01
sg71
S'idealForDigi'
p1244
sg15
I01
sbsg15
I01
sg1052
g0
(g67
g2
Ntp1245
Rp1246
(dp1247
g14
I00
sg32
I01
sg71
S'fakeForIdeal'
p1248
sg15
I01
sbsg17
S'/cvmfs/cms.cern.ch/slc7_amd64_gcc820/cms/cmssw-patch/CMSSW_10_6_4_patch1/python/Geometry/TrackerGeometryBuilder/idealForDigiTrackerGeometryDB_cff.py'
p1249
sg16
I8
sg34
g1236
sg1051
g0
(g82
g2
Ntp1250
Rp1251
(dp1252
g14
I00
sg32
I01
sg71
I00
sg15
I00
sbsg421
g0
(g82
g2
Ntp1253
Rp1254
(dp1255
g14
I00
sg32
I01
sg71
I00
sg15
I01
sbsg35
g1065
sbsS'_Process__looper'
p1256
NsS'_Process__tasks'
p1257
(dp1258
sS'_Process__paths'
p1259
g0
(g553
g554
(dp1260
S'runAnalyzer'
p1261
g0
(cFWCore.ParameterSet.SequenceTypes
Path
p1262
g2
Ntp1263
Rp1264
(dp1265
g14
I00
sg43
g0
(g44
g2
Ntp1266
Rp1267
(dp1268
g48
(lp1269
g1148
asbsg34
g1261
sg15
I00
sg90
g0
(g91
g2
Ntp1270
Rp1271
(dp1272
g95
(dp1273
sg97
(lp1274
Nag1274
ag1274
asbsbstp1275
Rp1276
(dp1277
g559
(lp1278
g1261
asbsS'MuonNumberingInitialization'
p1279
g0
(g7
g2
Ntp1280
Rp1281
(dp1282
g11
(lp1283
sg14
I00
sg15
I00
sg16
I56
sg17
g18
sg34
g1279
sg35
g1279
sbsS'options'
p1284
g0
(g161
g2
Ntp1285
Rp1286
(dp1287
g14
I00
sg32
I00
sg15
I00
sS'wantSummary'
p1288
g0
(g82
g2
Ntp1289
Rp1290
(dp1291
g14
I00
sg32
I00
sg71
I01
sg15
I00
sbsg11
(lp1292
g1288
asg34
g1284
sbsS'DTGeometryESModule'
p1293
g0
(g7
g2
Ntp1294
Rp1295
(dp1296
g11
(lp1297
g150
ag1051
ag421
ag1052
asg14
I00
sg150
g0
(g67
g2
Ntp1298
Rp1299
(dp1300
g14
I00
sg32
I01
sg71
g72
sg15
I00
sbsg15
I00
sg1052
g0
(g67
g2
Ntp1301
Rp1302
(dp1303
g14
I00
sg32
I01
sg71
g72
sg15
I00
sbsg17
g18
sg16
I56
sg34
g1293
sg1051
g0
(g82
g2
Ntp1304
Rp1305
(dp1306
g14
I00
sg32
I01
sg71
I00
sg15
I00
sbsg421
g0
(g82
g2
Ntp1307
Rp1308
(dp1309
g14
I00
sg32
I01
sg71
I01
sg15
I00
sbsg35
g1293
sbsS'VolumeBasedMagneticFieldESProducer'
p1310
g0
(g7
g2
Ntp1311
Rp1312
(dp1313
g11
(lp1314
S'valueOverride'
p1315
aS'debugBuilder'
p1316
ag123
asg14
I00
sg1315
g0
(g522
g2
Ntp1317
Rp1318
(dp1319
g14
I00
sg32
I01
sg71
I18268
sg15
I01
sbsg16
I56
sg17
g18
sg123
g0
(g67
g2
Ntp1320
Rp1321
(dp1322
g14
I00
sg32
I00
sg71
g72
sg15
I00
sbsg1316
g0
(g82
g2
Ntp1323
Rp1324
(dp1325
g14
I00
sg32
I00
sg71
I00
sg15
I00
sbsg34
g1310
sg35
S'VolumeBasedMagneticFieldESProducerFromDB'
p1326
sg15
I01
sbsS'CaloTopologyBuilder'
p1327
g0
(g7
g2
Ntp1328
Rp1329
(dp1330
g11
(lp1331
sg14
I00
sg15
I00
sg16
I56
sg17
g18
sg34
g1327
sg35
g1327
sbsS'SiStripRecHitMatcherESProducer'
p1332
g0
(g7
g2
Ntp1333
Rp1334
(dp1335
g11
(lp1336
S'PreFilter'
p1337
aS'ComponentName'
p1338
aS'NSigmaInside'
p1339
asg14
I00
sg15
I00
sg17
g18
sg1338
g0
(g67
g2
Ntp1340
Rp1341
(dp1342
g14
I00
sg32
I01
sg71
S'StandardMatcher'
p1343
sg15
I00
sbsg1337
g0
(g82
g2
Ntp1344
Rp1345
(dp1346
g14
I00
sg32
I01
sg71
I00
sg15
I00
sbsg16
I56
sg1339
g0
(g854
g2
Ntp1347
Rp1348
(dp1349
g14
I00
sg32
I01
sg71
F3.0
sg15
I00
sbsg34
g1332
sg35
g1332
sbsS'_Process__psets'
p1350
(dp1351
S'maxEvents'
p1352
g0
(g161
g2
Ntp1353
Rp1354
(dp1355
g14
I00
sg32
I00
sg15
I00
sg11
(lp1356
S'input'
p1357
asg34
g1352
sg1357
g0
(g522
g2
Ntp1358
Rp1359
(dp1360
g14
I00
sg32
I00
sg71
I-1
sg15
I00
sbsbsg1020
g1022
sg1284
g1286
ssS'_Process__essources'
p1361
(dp1362
g1220
g1222
sg1217
g0
(g477
g2
Ntp1363
Rp1364
(dp1365
g14
I00
sg16
I172
sS'useHEUpgrade'
p1366
g0
(g82
g2
Ntp1367
Rp1368
(dp1369
g14
I00
sg32
I01
sg71
I00
sg15
I00
sbsS'HBRecalibration'
p1370
g0
(g82
g2
Ntp1371
Rp1372
(dp1373
g14
I00
sg32
I01
sg71
I00
sg15
I00
sbsS'useLayer0Weight'
p1374
g0
(g82
g2
Ntp1375
Rp1376
(dp1377
g14
I00
sg32
I01
sg71
I00
sg15
I00
sbsS'HEmeanenergies'
p1378
g0
(g1226
g2
Ntp1379
Rp1380
(dp1381
g14
I00
sg32
I01
sg71
S'CalibCalorimetry/HcalPlugins/data/meanenergiesHE.txt'
p1382
sg15
I00
sbsg1020
g1022
sS'heUpgrade'
p1383
g0
(g161
g2
Ntp1384
Rp1385
(dp1386
g14
I00
sg32
I01
sS'qieType'
p1387
g0
(g522
g2
Ntp1388
Rp1389
(dp1390
g14
I00
sg32
I01
sg71
I2
sg15
I00
sbsg15
I00
sS'pedestalWidth'
p1391
g0
(g854
g2
Ntp1392
Rp1393
(dp1394
g14
I00
sg32
I01
sg71
F1.5
sg15
I00
sbsS'recoShape'
p1395
g0
(g522
g2
Ntp1396
Rp1397
(dp1398
g14
I00
sg32
I01
sg71
I206
sg15
I00
sbsS'zsThreshold'
p1399
g0
(g522
g2
Ntp1400
Rp1401
(dp1402
g14
I00
sg32
I01
sg71
I16
sg15
I00
sbsS'darkCurrent'
p1403
g0
(g1025
g20
(lp1404
F0.01
aF0.015
atp1405
Rp1406
(dp1407
g14
I00
sg32
I01
sg15
I00
sbsS'qieOffset'
p1408
g0
(g1025
g20
(lp1409
F0.0
aF0.0
aF0.0
aF0.0
atp1410
Rp1411
(dp1412
g14
I00
sg32
I01
sg15
I00
sbsS'qieSlope'
p1413
g0
(g1025
g20
(lp1414
F0.05376
aF0.05376
aF0.05376
aF0.05376
atp1415
Rp1416
(dp1417
g14
I00
sg32
I01
sg15
I00
sbsS'radiationDamage'
p1418
g0
(g161
g2
Ntp1419
Rp1420
(dp1421
g14
I00
sg32
I01
sS'temperatureNew'
p1422
g0
(g854
g2
Ntp1423
Rp1424
(dp1425
g14
I00
sg32
I01
sg71
I5
sg15
I00
sbsg15
I00
sS'depVsNeutrons'
p1426
g0
(g1025
g20
(lp1427
F5.543e-10
aF8.012e-10
atp1428
Rp1429
(dp1430
g14
I00
sg32
I01
sg15
I00
sbsS'temperatureBase'
p1431
g0
(g854
g2
Ntp1432
Rp1433
(dp1434
g14
I00
sg32
I01
sg71
I20
sg15
I00
sbsS'depVsTemp'
p1435
g0
(g854
g2
Ntp1436
Rp1437
(dp1438
g14
I00
sg32
I01
sg71
F0.0631
sg15
I00
sbsS'intlumiOffset'
p1439
g0
(g854
g2
Ntp1440
Rp1441
(dp1442
g14
I00
sg32
I01
sg71
I75
sg15
I00
sbsg11
(lp1443
g1422
ag1426
ag1431
ag1435
ag1439
aS'intlumiToNeutrons'
p1444
asg1444
g0
(g854
g2
Ntp1445
Rp1446
(dp1447
g14
I00
sg32
I01
sg71
F29200000.0
sg15
I00
sbsbsS'doRadiationDamage'
p1448
g0
(g82
g2
Ntp1449
Rp1450
(dp1451
g14
I00
sg32
I01
sg71
I01
sg15
I00
sbsg11
(lp1452
g1387
ag1391
ag1395
ag1399
aS'photoelectronsToAnalog'
p1453
ag1408
ag1413
ag1418
ag1448
ag1403
aS'pedestal'
p1454
aS'mcShape'
p1455
aS'gainWidth'
p1456
aS'gain'
p1457
asg1453
g0
(g854
g2
Ntp1458
Rp1459
(dp1460
g14
I00
sg32
I01
sg71
F40.0
sg15
I00
sbsg1454
g0
(g854
g2
Ntp1461
Rp1462
(dp1463
g14
I00
sg32
I01
sg71
F17.3
sg15
I00
sbsg1455
g0
(g522
g2
Ntp1464
Rp1465
(dp1466
g14
I00
sg32
I01
sg71
I206
sg15
I00
sbsg1456
g0
(g1025
g20
(lp1467
I0
atp1468
Rp1469
(dp1470
g14
I00
sg32
I01
sg15
I00
sbsg1457
g0
(g1025
g20
(lp1471
F0.0006252
atp1472
Rp1473
(dp1474
g14
I00
sg32
I01
sg15
I00
sbsbsg11
(lp1475
g488
ag1370
ag1374
ag1378
ag1020
ag1383
aS'useIeta18depth1'
p1476
aS'killHE'
p1477
aS'useHBUpgrade'
p1478
aS'hbUpgrade'
p1479
aS'testHEPlan1'
p1480
aS'iLumi'
p1481
aS'testHFQIE10'
p1482
aS'HBmeanenergies'
p1483
ag1366
aS'GainWidthsForTrigPrims'
p1484
aS'HBreCalibCutoff'
p1485
aS'HFRecalibration'
p1486
aS'ho'
p1487
aS'hb'
p1488
aS'hf'
p1489
aS'he'
p1490
aS'HERecalibration'
p1491
aS'useHFUpgrade'
p1492
aS'HEreCalibCutoff'
p1493
aS'SiPMCharacteristics'
p1494
aS'useHOUpgrade'
p1495
aS'hfUpgrade'
p1496
asg17
S'/cvmfs/cms.cern.ch/slc7_amd64_gcc820/cms/cmssw-patch/CMSSW_10_6_4_patch1/python/CalibCalorimetry/HcalPlugins/Hcal_Conditions_forGlobalTag_cff.py'
p1497
sg1476
g0
(g82
g2
Ntp1498
Rp1499
(dp1500
g14
I00
sg32
I01
sg71
I01
sg15
I00
sbsg1477
g0
(g82
g2
Ntp1501
Rp1502
(dp1503
g14
I00
sg32
I01
sg71
I00
sg15
I00
sbsg1478
g0
(g82
g2
Ntp1504
Rp1505
(dp1506
g14
I00
sg32
I01
sg71
I00
sg15
I00
sbsg1479
g0
(g161
g2
Ntp1507
Rp1508
(dp1509
g14
I00
sg32
I01
sg1387
g0
(g522
g2
Ntp1510
Rp1511
(dp1512
g14
I00
sg32
I01
sg71
I2
sg15
I00
sbsg15
I00
sg1391
g0
(g854
g2
Ntp1513
Rp1514
(dp1515
g14
I00
sg32
I01
sg71
F1.5
sg15
I00
sbsg1395
g0
(g522
g2
Ntp1516
Rp1517
(dp1518
g14
I00
sg32
I01
sg71
I206
sg15
I00
sbsg1399
g0
(g522
g2
Ntp1519
Rp1520
(dp1521
g14
I00
sg32
I01
sg71
I16
sg15
I00
sbsg1403
g0
(g1025
g20
(lp1522
F0.01
aF0.015
atp1523
Rp1524
(dp1525
g14
I00
sg32
I01
sg15
I00
sbsg1408
g0
(g1025
g20
(lp1526
F0.0
aF0.0
aF0.0
aF0.0
atp1527
Rp1528
(dp1529
g14
I00
sg32
I01
sg15
I00
sbsg1413
g0
(g1025
g20
(lp1530
F0.05376
aF0.05376
aF0.05376
aF0.05376
atp1531
Rp1532
(dp1533
g14
I00
sg32
I01
sg15
I00
sbsg1418
g0
(g161
g2
Ntp1534
Rp1535
(dp1536
g14
I00
sg32
I01
sg1422
g0
(g854
g2
Ntp1537
Rp1538
(dp1539
g14
I00
sg32
I01
sg71
I-5
sg15
I00
sbsg15
I00
sg1426
g0
(g1025
g20
(lp1540
F5.543e-10
aF8.012e-10
atp1541
Rp1542
(dp1543
g14
I00
sg32
I01
sg15
I00
sbsg1431
g0
(g854
g2
Ntp1544
Rp1545
(dp1546
g14
I00
sg32
I01
sg71
I20
sg15
I00
sbsg1435
g0
(g854
g2
Ntp1547
Rp1548
(dp1549
g14
I00
sg32
I01
sg71
F0.0631
sg15
I00
sbsg1439
g0
(g854
g2
Ntp1550
Rp1551
(dp1552
g14
I00
sg32
I01
sg71
I150
sg15
I00
sbsg11
(lp1553
g1422
ag1426
ag1431
ag1435
ag1439
ag1444
asg1444
g0
(g854
g2
Ntp1554
Rp1555
(dp1556
g14
I00
sg32
I01
sg71
F367000000.0
sg15
I00
sbsbsg1448
g0
(g82
g2
Ntp1557
Rp1558
(dp1559
g14
I00
sg32
I01
sg71
I01
sg15
I00
sbsg11
(lp1560
g1387
ag1391
ag1395
ag1399
ag1453
ag1408
ag1413
ag1418
ag1448
ag1403
ag1454
ag1455
ag1456
ag1457
asg1453
g0
(g854
g2
Ntp1561
Rp1562
(dp1563
g14
I00
sg32
I01
sg71
F40.0
sg15
I00
sbsg1454
g0
(g854
g2
Ntp1564
Rp1565
(dp1566
g14
I00
sg32
I01
sg71
F17.3
sg15
I00
sbsg1455
g0
(g522
g2
Ntp1567
Rp1568
(dp1569
g14
I00
sg32
I01
sg71
I206
sg15
I00
sbsg1456
g0
(g1025
g20
(lp1570
I0
atp1571
Rp1572
(dp1573
g14
I00
sg32
I01
sg15
I00
sbsg1457
g0
(g1025
g20
(lp1574
F0.0006252
atp1575
Rp1576
(dp1577
g14
I00
sg32
I01
sg15
I00
sbsbsg35
g1218
sg1480
g0
(g82
g2
Ntp1578
Rp1579
(dp1580
g14
I00
sg32
I01
sg71
I00
sg15
I00
sbsg1481
g0
(g854
g2
Ntp1581
Rp1582
(dp1583
g14
I00
sg32
I01
sg71
F-1.0
sg15
I00
sbsg1482
g0
(g82
g2
Ntp1584
Rp1585
(dp1586
g14
I00
sg32
I01
sg71
I00
sg15
I00
sbsg1483
g0
(g1226
g2
Ntp1587
Rp1588
(dp1589
g14
I00
sg32
I01
sg71
S'CalibCalorimetry/HcalPlugins/data/meanenergiesHB.txt'
p1590
sg15
I00
sbsg488
g0
(g19
g20
(lp1591
S'GainWidths'
p1592
atp1593
Rp1594
(dp1595
g14
I00
sg32
I00
sg15
I00
sg33
I1
sbsg1484
g0
(g82
g2
Ntp1596
Rp1597
(dp1598
g14
I00
sg32
I01
sg71
I00
sg15
I00
sbsg1485
g0
(g854
g2
Ntp1599
Rp1600
(dp1601
g14
I00
sg32
I01
sg71
F20.0
sg15
I00
sbsg1486
g0
(g82
g2
Ntp1602
Rp1603
(dp1604
g14
I00
sg32
I01
sg71
I00
sg15
I00
sbsg1487
g0
(g161
g2
Ntp1605
Rp1606
(dp1607
g14
I00
sg32
I01
sg1387
g0
(g522
g2
Ntp1608
Rp1609
(dp1610
g14
I00
sg32
I01
sg71
I0
sg15
I00
sbsg15
I00
sg1391
g0
(g854
g2
Ntp1611
Rp1612
(dp1613
g14
I00
sg32
I01
sg71
F0.6285
sg15
I00
sbsg1395
g0
(g522
g2
Ntp1614
Rp1615
(dp1616
g14
I00
sg32
I01
sg71
I201
sg15
I00
sbsg1399
g0
(g522
g2
Ntp1617
Rp1618
(dp1619
g14
I00
sg32
I01
sg71
I24
sg15
I00
sbsg1403
g0
(g1025
g20
(lp1620
F0.0
atp1621
Rp1622
(dp1623
g14
I00
sg32
I01
sg15
I00
sbsg1408
g0
(g1025
g20
(lp1624
F-0.44
aF1.4
aF7.1
aF38.5
atp1625
Rp1626
(dp1627
g14
I00
sg32
I01
sg15
I00
sbsg1413
g0
(g1025
g20
(lp1628
F0.907
aF0.915
aF0.92
aF0.921
atp1629
Rp1630
(dp1631
g14
I00
sg32
I01
sg15
I00
sbsg1457
g0
(g1025
g20
(lp1632
F0.006
aF0.0087
atp1633
Rp1634
(dp1635
g14
I00
sg32
I01
sg15
I00
sbsg1448
g0
(g82
g2
Ntp1636
Rp1637
(dp1638
g14
I00
sg32
I01
sg71
I00
sg15
I00
sbsg11
(lp1639
g1387
ag1391
ag1395
ag1399
ag1453
ag1408
ag1413
ag1457
ag1448
ag1403
ag1454
ag1455
ag1456
asg1453
g0
(g854
g2
Ntp1640
Rp1641
(dp1642
g14
I00
sg32
I01
sg71
F4.0
sg15
I00
sbsg1454
g0
(g854
g2
Ntp1643
Rp1644
(dp1645
g14
I00
sg32
I01
sg71
F12.06
sg15
I00
sbsg1455
g0
(g522
g2
Ntp1646
Rp1647
(dp1648
g14
I00
sg32
I01
sg71
I201
sg15
I00
sbsg1456
g0
(g1025
g20
(lp1649
F0.0
aF0.0
atp1650
Rp1651
(dp1652
g14
I00
sg32
I01
sg15
I00
sbsbsg1488
g0
(g161
g2
Ntp1653
Rp1654
(dp1655
g14
I00
sg32
I01
sg1387
g0
(g522
g2
Ntp1656
Rp1657
(dp1658
g14
I00
sg32
I01
sg71
I0
sg15
I00
sbsg15
I00
sg1391
g0
(g854
g2
Ntp1659
Rp1660
(dp1661
g14
I00
sg32
I01
sg71
F0.809
sg15
I00
sbsg1395
g0
(g522
g2
Ntp1662
Rp1663
(dp1664
g14
I00
sg32
I01
sg71
I105
sg15
I00
sbsg1399
g0
(g522
g2
Ntp1665
Rp1666
(dp1667
g14
I00
sg32
I01
sg71
I8
sg15
I00
sbsg1403
g0
(g1025
g20
(lp1668
F0.0
atp1669
Rp1670
(dp1671
g14
I00
sg32
I01
sg15
I00
sbsg1408
g0
(g1025
g20
(lp1672
F-0.49
aF1.8
aF7.2
aF37.9
atp1673
Rp1674
(dp1675
g14
I00
sg32
I01
sg15
I00
sbsg1413
g0
(g1025
g20
(lp1676
F0.912
aF0.917
aF0.922
aF0.923
atp1677
Rp1678
(dp1679
g14
I00
sg32
I01
sg15
I00
sbsg1457
g0
(g1025
g20
(lp1680
F0.19
atp1681
Rp1682
(dp1683
g14
I00
sg32
I01
sg15
I00
sbsg1448
g0
(g82
g2
Ntp1684
Rp1685
(dp1686
g14
I00
sg32
I01
sg71
I00
sg15
I00
sbsg11
(lp1687
g1387
ag1391
ag1395
ag1399
ag1453
ag1408
ag1413
ag1457
ag1448
ag1403
ag1454
ag1455
ag1456
asg1453
g0
(g854
g2
Ntp1688
Rp1689
(dp1690
g14
I00
sg32
I01
sg71
F0.3305
sg15
I00
sbsg1454
g0
(g854
g2
Ntp1691
Rp1692
(dp1693
g14
I00
sg32
I01
sg71
F3.285
sg15
I00
sbsg1455
g0
(g522
g2
Ntp1694
Rp1695
(dp1696
g14
I00
sg32
I01
sg71
I125
sg15
I00
sbsg1456
g0
(g1025
g20
(lp1697
F0.0
atp1698
Rp1699
(dp1700
g14
I00
sg32
I01
sg15
I00
sbsbsg1489
g0
(g161
g2
Ntp1701
Rp1702
(dp1703
g14
I00
sg32
I01
sg1387
g0
(g522
g2
Ntp1704
Rp1705
(dp1706
g14
I00
sg32
I01
sg71
I0
sg15
I00
sbsg15
I00
sg1391
g0
(g854
g2
Ntp1707
Rp1708
(dp1709
g14
I00
sg32
I01
sg71
F2.516
sg15
I00
sbsg1395
g0
(g522
g2
Ntp1710
Rp1711
(dp1712
g14
I00
sg32
I01
sg71
I301
sg15
I00
sbsg1399
g0
(g522
g2
Ntp1713
Rp1714
(dp1715
g14
I00
sg32
I01
sg71
I-9999
sg15
I00
sbsg1403
g0
(g1025
g20
(lp1716
F0.0
atp1717
Rp1718
(dp1719
g14
I00
sg32
I01
sg15
I00
sbsg1408
g0
(g1025
g20
(lp1720
F-0.87
aF1.4
aF7.8
aF-29.6
atp1721
Rp1722
(dp1723
g14
I00
sg32
I01
sg15
I00
sbsg1413
g0
(g1025
g20
(lp1724
F0.359
aF0.358
aF0.36
aF0.367
atp1725
Rp1726
(dp1727
g14
I00
sg32
I01
sg15
I00
sbsg1457
g0
(g1025
g20
(lp1728
F0.14
aF0.135
atp1729
Rp1730
(dp1731
g14
I00
sg32
I01
sg15
I00
sbsg1448
g0
(g82
g2
Ntp1732
Rp1733
(dp1734
g14
I00
sg32
I01
sg71
I00
sg15
I00
sbsg11
(lp1735
g1387
ag1391
ag1395
ag1399
ag1453
ag1408
ag1413
ag1457
ag1448
ag1403
ag1454
ag1455
ag1456
asg1453
g0
(g854
g2
Ntp1736
Rp1737
(dp1738
g14
I00
sg32
I01
sg71
F0.0
sg15
I00
sbsg1454
g0
(g854
g2
Ntp1739
Rp1740
(dp1741
g14
I00
sg32
I01
sg71
F9.354
sg15
I00
sbsg1455
g0
(g522
g2
Ntp1742
Rp1743
(dp1744
g14
I00
sg32
I01
sg71
I301
sg15
I00
sbsg1456
g0
(g1025
g20
(lp1745
F0.0
aF0.0
atp1746
Rp1747
(dp1748
g14
I00
sg32
I01
sg15
I00
sbsbsg1490
g0
(g161
g2
Ntp1749
Rp1750
(dp1751
g14
I00
sg32
I01
sg1387
g0
(g522
g2
Ntp1752
Rp1753
(dp1754
g14
I00
sg32
I01
sg71
I0
sg15
I00
sbsg15
I00
sg1391
g0
(g854
g2
Ntp1755
Rp1756
(dp1757
g14
I00
sg32
I01
sg71
F0.9698
sg15
I00
sbsg1395
g0
(g522
g2
Ntp1758
Rp1759
(dp1760
g14
I00
sg32
I01
sg71
I105
sg15
I00
sbsg1399
g0
(g522
g2
Ntp1761
Rp1762
(dp1763
g14
I00
sg32
I01
sg71
I9
sg15
I00
sbsg1403
g0
(g1025
g20
(lp1764
F0.0
atp1765
Rp1766
(dp1767
g14
I00
sg32
I01
sg15
I00
sbsg1408
g0
(g1025
g20
(lp1768
F-0.38
aF2.0
aF7.6
aF39.6
atp1769
Rp1770
(dp1771
g14
I00
sg32
I01
sg15
I00
sbsg1413
g0
(g1025
g20
(lp1772
F0.912
aF0.916
aF0.92
aF0.922
atp1773
Rp1774
(dp1775
g14
I00
sg32
I01
sg15
I00
sbsg1457
g0
(g1025
g20
(lp1776
F0.23
atp1777
Rp1778
(dp1779
g14
I00
sg32
I01
sg15
I00
sbsg1448
g0
(g82
g2
Ntp1780
Rp1781
(dp1782
g14
I00
sg32
I01
sg71
I00
sg15
I00
sbsg11
(lp1783
g1387
ag1391
ag1395
ag1399
ag1453
ag1408
ag1413
ag1457
ag1448
ag1403
ag1454
ag1455
ag1456
asg1453
g0
(g854
g2
Ntp1784
Rp1785
(dp1786
g14
I00
sg32
I01
sg71
F0.3305
sg15
I00
sbsg1454
g0
(g854
g2
Ntp1787
Rp1788
(dp1789
g14
I00
sg32
I01
sg71
F3.163
sg15
I00
sbsg1455
g0
(g522
g2
Ntp1790
Rp1791
(dp1792
g14
I00
sg32
I01
sg71
I125
sg15
I00
sbsg1456
g0
(g1025
g20
(lp1793
I0
atp1794
Rp1795
(dp1796
g14
I00
sg32
I01
sg15
I00
sbsbsg15
I00
sg1491
g0
(g82
g2
Ntp1797
Rp1798
(dp1799
g14
I00
sg32
I01
sg71
I00
sg15
I00
sbsg1492
g0
(g82
g2
Ntp1800
Rp1801
(dp1802
g14
I00
sg32
I01
sg71
I00
sg15
I00
sbsg1493
g0
(g854
g2
Ntp1803
Rp1804
(dp1805
g14
I00
sg32
I01
sg71
F20.0
sg15
I00
sbsg1494
g0
(g446
g20
(lp1806
g0
(g161
g2
Ntp1807
Rp1808
(dp1809
g14
I00
sg32
I01
sg15
I00
sS'crosstalk'
p1810
g0
(g854
g2
Ntp1811
Rp1812
(dp1813
g14
I00
sg32
I01
sg71
F0.0
sg15
I00
sbsS'nonlin1'
p1814
g0
(g854
g2
Ntp1815
Rp1816
(dp1817
g14
I00
sg32
I01
sg71
F1.0
sg15
I00
sbsS'nonlin3'
p1818
g0
(g854
g2
Ntp1819
Rp1820
(dp1821
g14
I00
sg32
I01
sg71
F0.0
sg15
I00
sbsS'nonlin2'
p1822
g0
(g854
g2
Ntp1823
Rp1824
(dp1825
g14
I00
sg32
I01
sg71
F0.0
sg15
I00
sbsg11
(lp1826
g1814
ag1818
ag1822
aS'pixels'
p1827
ag1810
asg1827
g0
(g522
g2
Ntp1828
Rp1829
(dp1830
g14
I00
sg32
I01
sg71
I36000
sg15
I00
sbsbag0
(g161
g2
Ntp1831
Rp1832
(dp1833
g14
I00
sg32
I01
sg15
I00
sg1810
g0
(g854
g2
Ntp1834
Rp1835
(dp1836
g14
I00
sg32
I01
sg71
F0.0
sg15
I00
sbsg1814
g0
(g854
g2
Ntp1837
Rp1838
(dp1839
g14
I00
sg32
I01
sg71
F1.0
sg15
I00
sbsg1818
g0
(g854
g2
Ntp1840
Rp1841
(dp1842
g14
I00
sg32
I01
sg71
F0.0
sg15
I00
sbsg1822
g0
(g854
g2
Ntp1843
Rp1844
(dp1845
g14
I00
sg32
I01
sg71
F0.0
sg15
I00
sbsg11
(lp1846
g1814
ag1818
ag1822
ag1827
ag1810
asg1827
g0
(g522
g2
Ntp1847
Rp1848
(dp1849
g14
I00
sg32
I01
sg71
I2500
sg15
I00
sbsbag0
(g161
g2
Ntp1850
Rp1851
(dp1852
g14
I00
sg32
I01
sg15
I00
sg1810
g0
(g854
g2
Ntp1853
Rp1854
(dp1855
g14
I00
sg32
I01
sg71
F0.17
sg15
I00
sbsg1814
g0
(g854
g2
Ntp1856
Rp1857
(dp1858
g14
I00
sg32
I01
sg71
F1.00985
sg15
I00
sbsg1818
g0
(g854
g2
Ntp1859
Rp1860
(dp1861
g14
I00
sg32
I01
sg71
F2.86282e-10
sg15
I00
sbsg1822
g0
(g854
g2
Ntp1862
Rp1863
(dp1864
g14
I00
sg32
I01
sg71
F7.84089e-06
sg15
I00
sbsg11
(lp1865
g1814
ag1818
ag1822
ag1827
ag1810
asg1827
g0
(g522
g2
Ntp1866
Rp1867
(dp1868
g14
I00
sg32
I01
sg71
I27370
sg15
I00
sbsbag0
(g161
g2
Ntp1869
Rp1870
(dp1871
g14
I00
sg32
I01
sg15
I00
sg1810
g0
(g854
g2
Ntp1872
Rp1873
(dp1874
g14
I00
sg32
I01
sg71
F0.196
sg15
I00
sbsg1814
g0
(g854
g2
Ntp1875
Rp1876
(dp1877
g14
I00
sg32
I01
sg71
F1.00546
sg15
I00
sbsg1818
g0
(g854
g2
Ntp1878
Rp1879
(dp1880
g14
I00
sg32
I01
sg71
F1.27011e-10
sg15
I00
sbsg1822
g0
(g854
g2
Ntp1881
Rp1882
(dp1883
g14
I00
sg32
I01
sg71
F6.40239e-06
sg15
I00
sbsg11
(lp1884
g1814
ag1818
ag1822
ag1827
ag1810
asg1827
g0
(g522
g2
Ntp1885
Rp1886
(dp1887
g14
I00
sg32
I01
sg71
I38018
sg15
I00
sbsbag0
(g161
g2
Ntp1888
Rp1889
(dp1890
g14
I00
sg32
I01
sg15
I00
sg1810
g0
(g854
g2
Ntp1891
Rp1892
(dp1893
g14
I00
sg32
I01
sg71
F0.17
sg15
I00
sbsg1814
g0
(g854
g2
Ntp1894
Rp1895
(dp1896
g14
I00
sg32
I01
sg71
F1.00985
sg15
I00
sbsg1818
g0
(g854
g2
Ntp1897
Rp1898
(dp1899
g14
I00
sg32
I01
sg71
F2.86282e-10
sg15
I00
sbsg1822
g0
(g854
g2
Ntp1900
Rp1901
(dp1902
g14
I00
sg32
I01
sg71
F7.84089e-06
sg15
I00
sbsg11
(lp1903
g1814
ag1818
ag1822
ag1827
ag1810
asg1827
g0
(g522
g2
Ntp1904
Rp1905
(dp1906
g14
I00
sg32
I01
sg71
I27370
sg15
I00
sbsbag0
(g161
g2
Ntp1907
Rp1908
(dp1909
g14
I00
sg32
I01
sg15
I00
sg1810
g0
(g854
g2
Ntp1910
Rp1911
(dp1912
g14
I00
sg32
I01
sg71
F0.196
sg15
I00
sbsg1814
g0
(g854
g2
Ntp1913
Rp1914
(dp1915
g14
I00
sg32
I01
sg71
F1.00546
sg15
I00
sbsg1818
g0
(g854
g2
Ntp1916
Rp1917
(dp1918
g14
I00
sg32
I01
sg71
F1.27011e-10
sg15
I00
sbsg1822
g0
(g854
g2
Ntp1919
Rp1920
(dp1921
g14
I00
sg32
I01
sg71
F6.40239e-06
sg15
I00
sbsg11
(lp1922
g1814
ag1818
ag1822
ag1827
ag1810
asg1827
g0
(g522
g2
Ntp1923
Rp1924
(dp1925
g14
I00
sg32
I01
sg71
I38018
sg15
I00
sbsbag0
(g161
g2
Ntp1926
Rp1927
(dp1928
g14
I00
sg32
I01
sg15
I00
sg1810
g0
(g854
g2
Ntp1929
Rp1930
(dp1931
g14
I00
sg32
I01
sg71
F0.0
sg15
I00
sbsg1814
g0
(g854
g2
Ntp1932
Rp1933
(dp1934
g14
I00
sg32
I01
sg71
F1.0
sg15
I00
sbsg1818
g0
(g854
g2
Ntp1935
Rp1936
(dp1937
g14
I00
sg32
I01
sg71
F0.0
sg15
I00
sbsg1822
g0
(g854
g2
Ntp1938
Rp1939
(dp1940
g14
I00
sg32
I01
sg71
F0.0
sg15
I00
sbsg11
(lp1941
g1814
ag1818
ag1822
ag1827
ag1810
asg1827
g0
(g522
g2
Ntp1942
Rp1943
(dp1944
g14
I00
sg32
I01
sg71
I0
sg15
I00
sbsbatp1945
Rp1946
(dp1947
g14
I00
sg32
I01
sg15
I00
sg33
I1
sbsg34
g1217
sg1495
g0
(g82
g2
Ntp1948
Rp1949
(dp1950
g14
I00
sg32
I01
sg71
I01
sg15
I00
sbsg1496
g0
(g161
g2
Ntp1951
Rp1952
(dp1953
g14
I00
sg32
I01
sg1387
g0
(g522
g2
Ntp1954
Rp1955
(dp1956
g14
I00
sg32
I01
sg71
I1
sg15
I00
sbsg15
I00
sg1391
g0
(g854
g2
Ntp1957
Rp1958
(dp1959
g14
I00
sg32
I01
sg71
F3.33
sg15
I00
sbsg1395
g0
(g522
g2
Ntp1960
Rp1961
(dp1962
g14
I00
sg32
I01
sg71
I301
sg15
I00
sbsg1399
g0
(g522
g2
Ntp1963
Rp1964
(dp1965
g14
I00
sg32
I01
sg71
I-9999
sg15
I00
sbsg1403
g0
(g1025
g20
(lp1966
F0.0
atp1967
Rp1968
(dp1969
g14
I00
sg32
I01
sg15
I00
sbsg1408
g0
(g1025
g20
(lp1970
F0.0697
aF-0.7405
aF12.38
aF-671.9
atp1971
Rp1972
(dp1973
g14
I00
sg32
I01
sg15
I00
sbsg1413
g0
(g1025
g20
(lp1974
F0.297
aF0.298
aF0.298
aF0.313
atp1975
Rp1976
(dp1977
g14
I00
sg32
I01
sg15
I00
sbsg1457
g0
(g1025
g20
(lp1978
F0.14
aF0.135
atp1979
Rp1980
(dp1981
g14
I00
sg32
I01
sg15
I00
sbsg1448
g0
(g82
g2
Ntp1982
Rp1983
(dp1984
g14
I00
sg32
I01
sg71
I00
sg15
I00
sbsg11
(lp1985
g1387
ag1391
ag1395
ag1399
ag1453
ag1408
ag1413
ag1457
ag1448
ag1403
ag1454
ag1455
ag1456
asg1453
g0
(g854
g2
Ntp1986
Rp1987
(dp1988
g14
I00
sg32
I01
sg71
F0.0
sg15
I00
sbsg1454
g0
(g854
g2
Ntp1989
Rp1990
(dp1991
g14
I00
sg32
I01
sg71
F13.33
sg15
I00
sbsg1455
g0
(g522
g2
Ntp1992
Rp1993
(dp1994
g14
I00
sg32
I01
sg71
I301
sg15
I00
sbsg1456
g0
(g1025
g20
(lp1995
F0.0
aF0.0
atp1996
Rp1997
(dp1998
g14
I00
sg32
I01
sg15
I00
sbsbsbsg1066
g1068
sg476
g479
sg842
g844
ssg116
g102
sg428
g431
sg1352
g1354
sS'CSCGeometryESModule'
p1999
g0
(g7
g2
Ntp2000
Rp2001
(dp2002
g11
(lp2003
g150
aS'useDDD'
p2004
aS'debugV'
p2005
aS'useGangedStripsInME1a'
p2006
ag1052
aS'useOnlyWiresInME1a'
p2007
aS'useRealWireGeometry'
p2008
aS'useCentreTIOffsets'
p2009
ag421
asg14
I00
sg150
g0
(g67
g2
Ntp2010
Rp2011
(dp2012
g14
I00
sg32
I01
sg71
g72
sg15
I00
sbsg15
I00
sg2005
g0
(g82
g2
Ntp2013
Rp2014
(dp2015
g14
I00
sg32
I00
sg71
I00
sg15
I00
sbsg17
g18
sg2006
g0
(g82
g2
Ntp2016
Rp2017
(dp2018
g14
I00
sg32
I01
sg71
I01
sg15
I00
sbsg1052
g0
(g67
g2
Ntp2019
Rp2020
(dp2021
g14
I00
sg32
I01
sg71
g72
sg15
I00
sbsg2007
g0
(g82
g2
Ntp2022
Rp2023
(dp2024
g14
I00
sg32
I01
sg71
I00
sg15
I00
sbsg2004
g0
(g82
g2
Ntp2025
Rp2026
(dp2027
g14
I00
sg32
I01
sg71
I00
sg15
I00
sbsg16
I56
sg2009
g0
(g82
g2
Ntp2028
Rp2029
(dp2030
g14
I00
sg32
I01
sg71
I00
sg15
I00
sbsg34
g1999
sg2008
g0
(g82
g2
Ntp2031
Rp2032
(dp2033
g14
I00
sg32
I01
sg71
I01
sg15
I00
sbsg421
g0
(g82
g2
Ntp2034
Rp2035
(dp2036
g14
I00
sg32
I01
sg71
I01
sg15
I00
sbsg35
g1999
sbsS'EcalBarrelGeometryFromDBEP'
p2037
g0
(g7
g2
Ntp2038
Rp2039
(dp2040
g11
(lp2041
g421
asg14
I00
sg15
I01
sg16
I56
sg17
g18
sg34
g2037
sg421
g0
(g82
g2
Ntp2042
Rp2043
(dp2044
g14
I00
sg32
I01
sg71
I01
sg15
I01
sbsg35
g2037
sbsS'trackerNumberingGeometryDB'
p2045
g0
(g7
g2
Ntp2046
Rp2047
(dp2048
g11
(lp2049
g150
ag1051
asg14
I00
sg150
g0
(g67
g2
Ntp2050
Rp2051
(dp2052
g14
I00
sg32
I01
sg71
g72
sg15
I00
sbsg15
I00
sg16
I56
sg17
g18
sg34
g2045
sg1051
g0
(g82
g2
Ntp2053
Rp2054
(dp2055
g14
I00
sg32
I01
sg71
I00
sg15
I00
sbsg35
S'TrackerGeometricDetESModule'
p2056
sbsS'_Process__name'
p2057
S'Analysis'
p2058
sg1217
g1364
sS'_cloneToObjectDict'
p2059
(dp2060
I139746554122000
g0
(g7
g2
Ntp2061
Rp2062
(dp2063
g11
(lp2064
S'ComponentType'
p2065
ag1338
aS'parameters'
p2066
asg14
I00
sg15
I00
sg2066
g0
(g161
g2
Ntp2067
Rp2068
(dp2069
g14
I00
sg32
I01
sg15
I00
sg11
(lp2070
sbsg16
I56
sg1338
g0
(g67
g2
Ntp2071
Rp2072
(dp2073
g14
I00
sg32
I01
sg71
S'stripCPE'
p2074
sg15
I00
sbsg2065
g0
(g67
g2
Ntp2075
Rp2076
(dp2077
g14
I00
sg32
I01
sg71
S'SimpleStripCPE'
p2078
sg15
I00
sbsg17
g18
sg34
S'stripCPEESProducer'
p2079
sg35
S'StripCPEESProducer'
p2080
sbsI139746554278800
g0
(g7
g2
Ntp2081
Rp2082
(dp2083
g11
(lp2084
sg14
I00
sg15
I00
sg16
I56
sg17
g18
sg34
S'TrackerRecoGeometryESProducer'
p2085
sg35
g2085
sbsI139746554319824
g0
(g7
g2
Ntp2086
Rp2087
(dp2088
g11
(lp2089
g421
asg14
I00
sg15
I00
sg16
I56
sg17
g18
sg34
S'ZdcGeometryFromDBEP'
p2090
sg421
g0
(g82
g2
Ntp2091
Rp2092
(dp2093
g14
I00
sg32
I01
sg71
I00
sg15
I00
sbsg35
g2090
sbsI139746554278928
g0
(g7
g2
Ntp2094
Rp2095
(dp2096
g11
(lp2097
g150
asg14
I00
sg150
g0
(g67
g2
Ntp2098
Rp2099
(dp2100
g14
I00
sg32
I01
sg71
g72
sg15
I00
sbsg15
I00
sg16
I56
sg17
g18
sg34
S'trackerTopology'
p2101
sg35
S'TrackerTopologyEP'
p2102
sbsI139746554121680
g1102
sI139746554369168
g0
(g7
g2
Ntp2103
Rp2104
(dp2105
g11
(lp2106
g150
ag1051
ag421
ag1052
asg14
I00
sg150
g0
(g67
g2
Ntp2107
Rp2108
(dp2109
g14
I00
sg32
I01
sg71
g1244
sg15
I01
sbsg15
I01
sg1052
g0
(g67
g2
Ntp2110
Rp2111
(dp2112
g14
I00
sg32
I01
sg71
g1248
sg15
I01
sbsg17
S'/cvmfs/cms.cern.ch/slc7_amd64_gcc820/cms/cmssw-patch/CMSSW_10_6_4_patch1/python/Geometry/DTGeometryBuilder/idealForDigiDtGeometryDB_cff.py'
p2113
sg16
I8
sg34
S'idealForDigiDTGeometry'
p2114
sg1051
g0
(g82
g2
Ntp2115
Rp2116
(dp2117
g14
I00
sg32
I01
sg71
I00
sg15
I00
sbsg421
g0
(g82
g2
Ntp2118
Rp2119
(dp2120
g14
I00
sg32
I01
sg71
I00
sg15
I01
sbsg35
g1293
sbsI139746554279120
g563
sI139746554280464
g0
(g7
g2
Ntp2121
Rp2122
(dp2123
g11
(lp2124
g421
asg14
I00
sg15
I01
sg16
I56
sg17
g18
sg34
S'EcalPreshowerGeometryFromDBEP'
p2125
sg421
g0
(g82
g2
Ntp2126
Rp2127
(dp2128
g14
I00
sg32
I01
sg71
I01
sg15
I01
sbsg35
g2125
sbsI139746554320144
g1014
sI139746554741904
g1354
sI139746554118480
g0
(g7
g2
Ntp2129
Rp2130
(dp2131
g11
(lp2132
g150
asg14
I00
sg150
g0
(g67
g2
Ntp2133
Rp2134
(dp2135
g14
I00
sg32
I01
sg71
g72
sg15
I00
sbsg15
I00
sg16
I56
sg17
g18
sg34
S'CastorDbProducer'
p2136
sg35
g2136
sbsI139746554021264
g0
(g7
g2
Ntp2137
Rp2138
(dp2139
g11
(lp2140
S'file'
p2141
aS'dump'
p2142
asg14
I00
sg15
I00
sg2142
g0
(g19
g20
(lp2143
g72
atp2144
Rp2145
(dp2146
g14
I00
sg32
I00
sg15
I00
sg33
I1
sbsg16
I56
sg17
g18
sg2141
g0
(g67
g2
Ntp2147
Rp2148
(dp2149
g14
I00
sg32
I00
sg71
g72
sg15
I00
sbsg34
S'hcal_db_producer'
p2150
sg35
S'HcalDbProducer'
p2151
sbsI139746554157008
g438
sI139746553730512
g1148
sI139746553730576
g1264
sI139746554320464
g1092
sI139746554120976
g0
(g7
g2
Ntp2152
Rp2153
(dp2154
g11
(lp2155
g1105
aS'LorentzAngleDeconvMode'
p2156
aS'LorentzAnglePeakMode'
p2157
asg14
I00
sg15
I00
sg16
I56
sg17
g18
sg1105
g0
(g161
g2
Ntp2158
Rp2159
(dp2160
g14
I00
sg32
I01
sg15
I00
sg123
g0
(g67
g2
Ntp2161
Rp2162
(dp2163
g14
I00
sg32
I00
sg71
g72
sg15
I00
sbsg451
g0
(g67
g2
Ntp2164
Rp2165
(dp2166
g14
I00
sg32
I01
sg71
g1117
sg15
I00
sbsg11
(lp2167
g451
ag123
asbsg34
S'siStripLorentzAngleDepESProducer'
p2168
sg2157
g0
(g161
g2
Ntp2169
Rp2170
(dp2171
g14
I00
sg32
I01
sg15
I00
sg123
g0
(g67
g2
Ntp2172
Rp2173
(dp2174
g14
I00
sg32
I00
sg71
g1125
sg15
I00
sbsg451
g0
(g67
g2
Ntp2175
Rp2176
(dp2177
g14
I00
sg32
I01
sg71
S'SiStripLorentzAngleRcd'
p2178
sg15
I00
sbsg11
(lp2179
g451
ag123
asbsg35
S'SiStripLorentzAngleDepESProducer'
p2180
sg2156
g0
(g161
g2
Ntp2181
Rp2182
(dp2183
g14
I00
sg32
I01
sg15
I00
sg123
g0
(g67
g2
Ntp2184
Rp2185
(dp2186
g14
I00
sg32
I00
sg71
g1137
sg15
I00
sbsg451
g0
(g67
g2
Ntp2187
Rp2188
(dp2189
g14
I00
sg32
I01
sg71
g2178
sg15
I00
sbsg11
(lp2190
g451
ag123
asbsbsI139746554157648
g41
sI139746554120080
g0
(g7
g2
Ntp2191
Rp2192
(dp2193
g11
(lp2194
S'printDebug'
p2195
ag150
aS'APVGain'
p2196
aS'AutomaticNormalization'
p2197
asg14
I00
sg150
g0
(g67
g2
Ntp2198
Rp2199
(dp2200
g14
I00
sg32
I01
sg71
g72
sg15
I00
sbsg15
I00
sg2197
g0
(g82
g2
Ntp2201
Rp2202
(dp2203
g14
I00
sg32
I01
sg71
I00
sg15
I00
sbsg16
I56
sg2195
g0
(g82
g2
Ntp2204
Rp2205
(dp2206
g14
I00
sg32
I00
sg71
I00
sg15
I00
sbsg17
g18
sg2196
g0
(g446
g20
(lp2207
g0
(g161
g2
Ntp2208
Rp2209
(dp2210
g14
I00
sg32
I01
sg15
I00
sS'Label'
p2211
g0
(g67
g2
Ntp2212
Rp2213
(dp2214
g14
I00
sg32
I00
sg71
g72
sg15
I00
sbsS'Record'
p2215
g0
(g67
g2
Ntp2216
Rp2217
(dp2218
g14
I00
sg32
I01
sg71
S'SiStripApvGainRcd'
p2219
sg15
I00
sbsS'NormalizationFactor'
p2220
g0
(g854
g2
Ntp2221
Rp2222
(dp2223
g14
I00
sg32
I00
sg71
F1.0
sg15
I00
sbsg11
(lp2224
g2215
ag2220
ag2211
asbag0
(g161
g2
Ntp2225
Rp2226
(dp2227
g14
I00
sg32
I01
sg15
I00
sg2211
g0
(g67
g2
Ntp2228
Rp2229
(dp2230
g14
I00
sg32
I00
sg71
g72
sg15
I00
sbsg2215
g0
(g67
g2
Ntp2231
Rp2232
(dp2233
g14
I00
sg32
I01
sg71
S'SiStripApvGain2Rcd'
p2234
sg15
I00
sbsg2220
g0
(g854
g2
Ntp2235
Rp2236
(dp2237
g14
I00
sg32
I00
sg71
F1.0
sg15
I00
sbsg11
(lp2238
g2215
ag2220
ag2211
asbatp2239
Rp2240
(dp2241
g14
I00
sg32
I01
sg15
I00
sg33
I1
sbsg34
S'siStripGainESProducer'
p2242
sg35
S'SiStripGainESProducer'
p2243
sbsI139746554460112
g1312
sI139746554320912
g0
(g7
g2
Ntp2244
Rp2245
(dp2246
g11
(lp2247
sg14
I00
sg15
I00
sg16
I56
sg17
g18
sg34
S'EcalElectronicsMappingBuilder'
p2248
sg35
g2248
sbsI139746554079312
g1364
sI139746554370192
g119
sI139746554321168
g1068
sI139746554280336
g568
sI139746554460624
g0
(g7
g2
Ntp2249
Rp2250
(dp2251
g11
(lp2252
S'version'
p2253
ag1315
ag123
asg14
I00
sg15
I01
sg16
I56
sg17
g18
sg123
g0
(g67
g2
Ntp2254
Rp2255
(dp2256
g14
I00
sg32
I00
sg71
S'ParabolicMf'
p2257
sg15
I01
sbsg2253
g0
(g67
g2
Ntp2258
Rp2259
(dp2260
g14
I00
sg32
I01
sg71
S'Parabolic'
p2261
sg15
I00
sbsg1315
g0
(g522
g2
Ntp2262
Rp2263
(dp2264
g14
I00
sg32
I01
sg71
I18268
sg15
I01
sbsg34
S'ParabolicParametrizedMagneticFieldProducer'
p2265
sg35
S'AutoParametrizedMagneticFieldProducer'
p2266
sbsI139746554743952
g0
(g7
g2
Ntp2267
Rp2268
(dp2269
g11
(lp2270
g2004
aS'compatibiltyWith11'
p2271
asg14
I00
sg15
I00
sg16
I56
sg17
g18
sg2004
g0
(g82
g2
Ntp2272
Rp2273
(dp2274
g14
I00
sg32
I00
sg71
I00
sg15
I00
sbsg2271
g0
(g82
g2
Ntp2275
Rp2276
(dp2277
g14
I00
sg32
I00
sg71
I01
sg15
I00
sbsg34
S'RPCGeometryESModule'
p2278
sg35
g2278
sbsI139746554080464
g1213
sI139746554280592
g2039
sI139746554743504
g2001
sI139746554279952
g9
sI139746554321680
g147
sI139746554370960
g1222
sI139746554322000
g0
(g7
g2
Ntp2279
Rp2280
(dp2281
g11
(lp2282
g150
asg14
I00
sg150
g0
(g67
g2
Ntp2283
Rp2284
(dp2285
g14
I00
sg32
I01
sg71
g72
sg15
I00
sbsg15
I00
sg16
I56
sg17
g18
sg34
S'hcalDDDRecConstants'
p2286
sg35
S'HcalDDDRecConstantsESModule'
p2287
sbsI139746554281040
g0
(g7
g2
Ntp2288
Rp2289
(dp2290
g11
(lp2291
g421
asg14
I00
sg15
I01
sg16
I56
sg17
g18
sg34
S'HcalGeometryFromDBEP'
p2292
sg421
g0
(g82
g2
Ntp2293
Rp2294
(dp2295
g14
I00
sg32
I01
sg71
I01
sg15
I01
sbsg35
g2292
sbsI139746554281104
g0
(g7
g2
Ntp2296
Rp2297
(dp2298
g11
(lp2299
sg14
I00
sg15
I00
sg16
I56
sg17
g18
sg34
S'HcalAlignmentEP'
p2300
sg35
g2300
sbsI139746554741648
g1286
sI139746554156304
g1334
sI139746554322192
g1238
sI139746554157136
g52
sI139746554278736
g0
(g7
g2
Ntp2301
Rp2302
(dp2303
g11
(lp2304
sg14
I00
sg15
I00
sg16
I56
sg17
g18
sg34
S'GlobalTrackingGeometryESProducer'
p2305
sg35
g2305
sbsI139746554460816
g0
(g7
g2
Ntp2306
Rp2307
(dp2308
g11
(lp2309
sg14
I00
sg15
I00
sg16
I56
sg17
g18
sg34
S'EcalLaserCorrectionService'
p2310
sg35
g2310
sbsI139746554021200
g1022
sI139746554158224
g0
(g7
g2
Ntp2311
Rp2312
(dp2313
g11
(lp2314
g150
aS'PrintDebugOutput'
p2315
aS'ThresholdForReducedGranularity'
p2316
aS'UseEmptyRunInfo'
p2317
aS'ReduceGranularity'
p2318
ag442
asg14
I00
sg150
g0
(g67
g2
Ntp2319
Rp2320
(dp2321
g14
I00
sg32
I01
sg71
g72
sg15
I00
sbsg15
I01
sg16
I56
sg17
g18
sg2316
g0
(g854
g2
Ntp2322
Rp2323
(dp2324
g14
I00
sg32
I01
sg71
F0.3
sg15
I00
sbsg34
S'siStripQualityESProducer'
p2325
sg2317
g0
(g82
g2
Ntp2326
Rp2327
(dp2328
g14
I00
sg32
I01
sg71
I00
sg15
I00
sbsg2318
g0
(g82
g2
Ntp2329
Rp2330
(dp2331
g14
I00
sg32
I01
sg71
I00
sg15
I00
sbsg442
g0
(g446
g20
(lp2332
g0
(g161
g2
Ntp2333
Rp2334
(dp2335
g14
I00
sg32
I01
sg15
I00
sg451
g0
(g67
g2
Ntp2336
Rp2337
(dp2338
g14
I00
sg32
I01
sg71
S'SiStripDetVOffRcd'
p2339
sg15
I00
sbsg456
g0
(g67
g2
Ntp2340
Rp2341
(dp2342
g14
I00
sg32
I01
sg71
g72
sg15
I00
sbsg11
(lp2343
g451
ag456
asbag0
(g161
g2
Ntp2344
Rp2345
(dp2346
g14
I00
sg32
I01
sg15
I00
sg451
g0
(g67
g2
Ntp2347
Rp2348
(dp2349
g14
I00
sg32
I01
sg71
S'SiStripDetCablingRcd'
p2350
sg15
I00
sbsg456
g0
(g67
g2
Ntp2351
Rp2352
(dp2353
g14
I00
sg32
I01
sg71
g72
sg15
I00
sbsg11
(lp2354
g451
ag456
asbag0
(g161
g2
Ntp2355
Rp2356
(dp2357
g14
I00
sg32
I01
sg15
I00
sg451
g0
(g67
g2
Ntp2358
Rp2359
(dp2360
g14
I00
sg32
I01
sg71
S'RunInfoRcd'
p2361
sg15
I00
sbsg456
g0
(g67
g2
Ntp2362
Rp2363
(dp2364
g14
I00
sg32
I01
sg71
g72
sg15
I00
sbsg11
(lp2365
g451
ag456
asbag0
(g161
g2
Ntp2366
Rp2367
(dp2368
g14
I00
sg32
I01
sg15
I00
sg451
g0
(g67
g2
Ntp2369
Rp2370
(dp2371
g14
I00
sg32
I01
sg71
S'SiStripBadChannelRcd'
p2372
sg15
I00
sbsg456
g0
(g67
g2
Ntp2373
Rp2374
(dp2375
g14
I00
sg32
I01
sg71
g72
sg15
I00
sbsg11
(lp2376
g451
ag456
asbag0
(g161
g2
Ntp2377
Rp2378
(dp2379
g14
I00
sg32
I01
sg15
I00
sg451
g0
(g67
g2
Ntp2380
Rp2381
(dp2382
g14
I00
sg32
I01
sg71
S'SiStripBadFiberRcd'
p2383
sg15
I00
sbsg456
g0
(g67
g2
Ntp2384
Rp2385
(dp2386
g14
I00
sg32
I01
sg71
g72
sg15
I00
sbsg11
(lp2387
g451
ag456
asbag0
(g161
g2
Ntp2388
Rp2389
(dp2390
g14
I00
sg32
I01
sg15
I00
sg451
g0
(g67
g2
Ntp2391
Rp2392
(dp2393
g14
I00
sg32
I01
sg71
S'SiStripBadModuleRcd'
p2394
sg15
I00
sbsg456
g0
(g67
g2
Ntp2395
Rp2396
(dp2397
g14
I00
sg32
I01
sg71
g72
sg15
I00
sbsg11
(lp2398
g451
ag456
asbag0
(g161
g2
Ntp2399
Rp2400
(dp2401
g14
I00
sg32
I01
sg15
I00
sg451
g0
(g67
g2
Ntp2402
Rp2403
(dp2404
g14
I00
sg32
I01
sg71
S'SiStripBadStripRcd'
p2405
sg15
I00
sbsg456
g0
(g67
g2
Ntp2406
Rp2407
(dp2408
g14
I00
sg32
I01
sg71
g72
sg15
I00
sbsg11
(lp2409
g451
ag456
asbatp2410
Rp2411
(dp2412
g14
I00
sg32
I01
sg15
I00
sg33
I1
sbsg35
S'SiStripQualityESProducer'
p2413
sg2315
g0
(g82
g2
Ntp2414
Rp2415
(dp2416
g14
I00
sg32
I01
sg71
I00
sg15
I00
sbsbsI139746554281424
g418
sI139746554412816
g431
sI139746554744592
g1295
sI139746554156432
g0
(g7
g2
Ntp2417
Rp2418
(dp2419
g11
(lp2420
sg14
I00
sg15
I00
sg16
I56
sg17
g18
sg34
S'sistripconn'
p2421
sg35
S'SiStripConnectivity'
p2422
sbsI139746554370576
g1281
sI139746554122128
g0
(g7
g2
Ntp2423
Rp2424
(dp2425
g11
(lp2426
g2065
ag1338
ag2066
asg14
I00
sg15
I01
sg2066
g0
(g161
g2
Ntp2427
Rp2428
(dp2429
g14
I00
sg32
I01
sS'maxChgOneMIP'
p2430
g0
(g854
g2
Ntp2431
Rp2432
(dp2433
g14
I00
sg32
I01
sg71
F6000.0
sg15
I00
sbsS'mLC_P2'
p2434
g0
(g854
g2
Ntp2435
Rp2436
(dp2437
g14
I00
sg32
I01
sg71
F0.3
sg15
I00
sbsS'mLC_P1'
p2438
g0
(g854
g2
Ntp2439
Rp2440
(dp2441
g14
I00
sg32
I01
sg71
F0.618
sg15
I00
sbsS'mLC_P0'
p2442
g0
(g854
g2
Ntp2443
Rp2444
(dp2445
g14
I00
sg32
I01
sg71
F-0.326
sg15
I00
sbsS'useLegacyError'
p2446
g0
(g82
g2
Ntp2447
Rp2448
(dp2449
g14
I00
sg32
I01
sg71
I00
sg15
I00
sbsS'mTIB_P1'
p2450
g0
(g854
g2
Ntp2451
Rp2452
(dp2453
g14
I00
sg32
I01
sg71
F0.202
sg15
I00
sbsS'mTEC_P1'
p2454
g0
(g854
g2
Ntp2455
Rp2456
(dp2457
g14
I00
sg32
I01
sg71
F0.471
sg15
I00
sbsS'mTEC_P0'
p2458
g0
(g854
g2
Ntp2459
Rp2460
(dp2461
g14
I00
sg32
I01
sg71
F-1.885
sg15
I00
sbsS'mTOB_P0'
p2462
g0
(g854
g2
Ntp2463
Rp2464
(dp2465
g14
I00
sg32
I01
sg71
F-1.026
sg15
I00
sbsS'mTOB_P1'
p2466
g0
(g854
g2
Ntp2467
Rp2468
(dp2469
g14
I00
sg32
I01
sg71
F0.253
sg15
I00
sbsS'mTIB_P0'
p2470
g0
(g854
g2
Ntp2471
Rp2472
(dp2473
g14
I00
sg32
I01
sg71
F-0.742
sg15
I00
sbsg11
(lp2474
g2430
ag2434
ag2438
ag2442
ag2446
ag2454
ag2458
ag2462
ag2466
ag2470
ag2450
aS'mTID_P0'
p2475
aS'mTID_P1'
p2476
asg2475
g0
(g854
g2
Ntp2477
Rp2478
(dp2479
g14
I00
sg32
I01
sg71
F-1.427
sg15
I00
sbsg2476
g0
(g854
g2
Ntp2480
Rp2481
(dp2482
g14
I00
sg32
I01
sg71
F0.433
sg15
I00
sbsg15
I00
sbsg16
I4
sg1338
g0
(g67
g2
Ntp2483
Rp2484
(dp2485
g14
I00
sg32
I01
sg71
S'StripCPEfromTrackAngle'
p2486
sg15
I00
sbsg2065
g0
(g67
g2
Ntp2487
Rp2488
(dp2489
g14
I00
sg32
I01
sg71
g2486
sg15
I00
sbsg17
S'/cvmfs/cms.cern.ch/slc7_amd64_gcc820/cms/cmssw-patch/CMSSW_10_6_4_patch1/python/RecoLocalTracker/SiStripRecHitConverter/StripCPEfromTrackAngle_cfi.py'
p2490
sg34
S'StripCPEfromTrackAngleESProducer'
p2491
sg35
g2080
sbsI139746554020496
g844
sI139746554281936
g0
(g7
g2
Ntp2492
Rp2493
(dp2494
g11
(lp2495
S'MergePosition'
p2496
aS'Exclude'
p2497
ag150
asg14
I00
sg150
g0
(g67
g2
Ntp2498
Rp2499
(dp2500
g14
I00
sg32
I01
sg71
g72
sg15
I00
sbsg15
I00
sg16
I56
sg2496
g0
(g82
g2
Ntp2501
Rp2502
(dp2503
g14
I00
sg32
I00
sg71
I00
sg15
I00
sbsg17
g18
sg34
S'hcalTopologyIdeal'
p2504
sg2497
g0
(g67
g2
Ntp2505
Rp2506
(dp2507
g14
I00
sg32
I00
sg71
g72
sg15
I00
sbsg35
S'HcalTopologyIdealEP'
p2508
sbsI139746554368080
g0
(g7
g2
Ntp2509
Rp2510
(dp2511
g11
(lp2512
g150
asg14
I00
sg150
g0
(g67
g2
Ntp2513
Rp2514
(dp2515
g14
I00
sg32
I01
sg71
g1248
sg15
I01
sbsg15
I01
sg16
I5
sg17
S'/cvmfs/cms.cern.ch/slc7_amd64_gcc820/cms/cmssw-patch/CMSSW_10_6_4_patch1/python/Alignment/CommonAlignmentProducer/fakeForIdealAlignmentProducer_cfi.py'
p2516
sg34
S'fakeForIdealAlignment'
p2517
sg35
S'FakeAlignmentProducer'
p2518
sbsI139746554278096
g2047
sI139746553983248
g479
sI139746554368336
g0
(g7
g2
Ntp2519
Rp2520
(dp2521
g11
(lp2522
g150
ag2004
ag2005
ag2006
ag1052
ag2007
ag2008
ag2009
ag421
asg14
I00
sg150
g0
(g67
g2
Ntp2523
Rp2524
(dp2525
g14
I00
sg32
I01
sg71
g1244
sg15
I01
sbsg15
I01
sg2005
g0
(g82
g2
Ntp2526
Rp2527
(dp2528
g14
I00
sg32
I00
sg71
I00
sg15
I00
sbsg17
S'/cvmfs/cms.cern.ch/slc7_amd64_gcc820/cms/cmssw-patch/CMSSW_10_6_4_patch1/python/Geometry/CSCGeometryBuilder/idealForDigiCscGeometryDB_cff.py'
p2529
sg2006
g0
(g82
g2
Ntp2530
Rp2531
(dp2532
g14
I00
sg32
I01
sg71
I01
sg15
I00
sbsg1052
g0
(g67
g2
Ntp2533
Rp2534
(dp2535
g14
I00
sg32
I01
sg71
g1248
sg15
I01
sbsg2007
g0
(g82
g2
Ntp2536
Rp2537
(dp2538
g14
I00
sg32
I01
sg71
I00
sg15
I00
sbsg2004
g0
(g82
g2
Ntp2539
Rp2540
(dp2541
g14
I00
sg32
I01
sg71
I00
sg15
I00
sbsg16
I8
sg2009
g0
(g82
g2
Ntp2542
Rp2543
(dp2544
g14
I00
sg32
I01
sg71
I00
sg15
I00
sbsg34
S'idealForDigiCSCGeometry'
p2545
sg2008
g0
(g82
g2
Ntp2546
Rp2547
(dp2548
g14
I00
sg32
I01
sg71
I01
sg15
I00
sbsg421
g0
(g82
g2
Ntp2549
Rp2550
(dp2551
g14
I00
sg32
I01
sg71
I00
sg15
I01
sbsg35
g1999
sbsI139746554319312
g0
(g7
g2
Ntp2552
Rp2553
(dp2554
g11
(lp2555
sg14
I00
sg15
I00
sg16
I56
sg17
g18
sg34
S'CaloTowerTopologyEP'
p2556
sg35
g2556
sbsI139746554279504
g1329
sI139746554278544
g1048
ssg2242
g2192
sg2278
g2268
sg2421
g2418
sg2090
g2087
sg2085
g2082
sg2168
g2153
sg2556
g2553
sg2265
g2250
sg2079
g2062
sg2101
g2095
sg2292
g2289
sg1210
g1213
sg2248
g2245
sg2491
g2424
sS'_Process__aliases'
p2557
(dp2558
sg2305
g2302
sg2504
g2493
sg2300
g2297
sg2125
g2122
sg2286
g2280
sg2136
g2130
sg2545
g2520
sS'_Process__subProcesses'
p2559
(lp2560
sg2150
g2138
sg1261
g1264
sg2310
g2307
sS'_Process__schedule'
p2561
Nsg2325
g2312
sg2114
g2104
sS'_Process__modifiers'
p2562
(tsS'_Process__filters'
p2563
(dp2564
g66
g52
ssS'_Process__esproducers'
p2565
(dp2566
g6
g9
sg2325
g2312
sg2310
g2307
sg2085
g2082
sg1310
g1312
sg2491
g2424
sg1012
g1014
sg1327
g1329
sg2305
g2302
sg117
g119
sg1046
g1048
sg2168
g2153
sg2504
g2493
sg2300
g2297
sg2125
g2122
sg2136
g2130
sg2286
g2280
sg1999
g2001
sg2037
g2039
sg2045
g2047
sg2248
g2245
sg1090
g1092
sg2545
g2520
sg416
g418
sg1100
g1102
sg2150
g2138
sg2242
g2192
sg1332
g1334
sg2278
g2268
sg2114
g2104
sg2090
g2087
sg1293
g1295
sg566
g568
sg2421
g2418
sg436
g438
sg1236
g1238
sg2556
g2553
sg2265
g2250
sg2079
g2062
sg145
g147
sg561
g563
sg2101
g2095
sg1279
g1281
sg2517
g2510
sg2292
g2289
ssS'_Process__partialschedules'
p2567
(dp2568
sg2517
g2510
sb.